################################################################################
#                                                                              #
#      IAR Universal Linker V6.3.2.73                                          #
#                                                                              #
#           Link time     =  19/Mar/2016  19:57:16                             #
#           Target CPU    =  MSP430                                            #
#           List file     =  F:\Graduate\Git_program\MSP430F247-v6.2.0\Net\Deb #
#                            ug\List\net.map                                   #
#           Output file 1 =  F:\Graduate\Git_program\MSP430F247-v6.2.0\Net\Deb #
#                            ug\Exe\net.d43                                    #
#                            Format: ubrof10                                   #
#                            UBROF version 10.0.6                              #
#                            Using library modules for C-SPY (-rt)             #
#           Command line  =  F:\Graduate\Git_program\MSP430F247-v6.2.0\Net\Deb #
#                            ug\Obj\A7139.r43                                  #
#                            F:\Graduate\Git_program\MSP430F247-v6.2.0\Net\Deb #
#                            ug\Obj\A7139_CONFIG.r43                           #
#                            F:\Graduate\Git_program\MSP430F247-v6.2.0\Net\Deb #
#                            ug\Obj\adc.r43                                    #
#                            F:\Graduate\Git_program\MSP430F247-v6.2.0\Net\Deb #
#                            ug\Obj\board.r43                                  #
#                            F:\Graduate\Git_program\MSP430F247-v6.2.0\Net\Deb #
#                            ug\Obj\criteria.r43                               #
#                            F:\Graduate\Git_program\MSP430F247-v6.2.0\Net\Deb #
#                            ug\Obj\delay.r43                                  #
#                            F:\Graduate\Git_program\MSP430F247-v6.2.0\Net\Deb #
#                            ug\Obj\detect.r43                                 #
#                            F:\Graduate\Git_program\MSP430F247-v6.2.0\Net\Deb #
#                            ug\Obj\digio.r43                                  #
#                            F:\Graduate\Git_program\MSP430F247-v6.2.0\Net\Deb #
#                            ug\Obj\filter.r43                                 #
#                            F:\Graduate\Git_program\MSP430F247-v6.2.0\Net\Deb #
#                            ug\Obj\flash.r43                                  #
#                            F:\Graduate\Git_program\MSP430F247-v6.2.0\Net\Deb #
#                            ug\Obj\int.r43                                    #
#                            F:\Graduate\Git_program\MSP430F247-v6.2.0\Net\Deb #
#                            ug\Obj\interrupt.r43                              #
#                            F:\Graduate\Git_program\MSP430F247-v6.2.0\Net\Deb #
#                            ug\Obj\join.r43                                   #
#                            F:\Graduate\Git_program\MSP430F247-v6.2.0\Net\Deb #
#                            ug\Obj\led.r43                                    #
#                            F:\Graduate\Git_program\MSP430F247-v6.2.0\Net\Deb #
#                            ug\Obj\mac.r43                                    #
#                            F:\Graduate\Git_program\MSP430F247-v6.2.0\Net\Deb #
#                            ug\Obj\main.r43                                   #
#                            F:\Graduate\Git_program\MSP430F247-v6.2.0\Net\Deb #
#                            ug\Obj\math.r43                                   #
#                            F:\Graduate\Git_program\MSP430F247-v6.2.0\Net\Deb #
#                            ug\Obj\mcu.r43                                    #
#                            F:\Graduate\Git_program\MSP430F247-v6.2.0\Net\Deb #
#                            ug\Obj\PNI.r43                                    #
#                            F:\Graduate\Git_program\MSP430F247-v6.2.0\Net\Deb #
#                            ug\Obj\ProcessEvent.r43                           #
#                            F:\Graduate\Git_program\MSP430F247-v6.2.0\Net\Deb #
#                            ug\Obj\spi.r43                                    #
#                            F:\Graduate\Git_program\MSP430F247-v6.2.0\Net\Deb #
#                            ug\Obj\sys.r43                                    #
#                            F:\Graduate\Git_program\MSP430F247-v6.2.0\Net\Deb #
#                            ug\Obj\tdma.r43                                   #
#                            F:\Graduate\Git_program\MSP430F247-v6.2.0\Net\Deb #
#                            ug\Obj\timer.r43                                  #
#                            F:\Graduate\Git_program\MSP430F247-v6.2.0\Net\Deb #
#                            ug\Obj\uart.r43                                   #
#                            -o                                                #
#                            F:\Graduate\Git_program\MSP430F247-v6.2.0\Net\Deb #
#                            ug\Exe\net.d43                                    #
#                            -l                                                #
#                            F:\Graduate\Git_program\MSP430F247-v6.2.0\Net\Deb #
#                            ug\List\net.map                                   #
#                            -xms "-ID:\IAR Systems\MSP430\430\LIB\" -f        #
#                            "D:\IAR Systems\MSP430\430\config\linker\lnk430f2 #
#                            47.xcl"                                           #
#                            (-cmsp430 -QCODE_I=CODE_ID -QTLS16_I=TLS16_ID     #
#                            -D__iar_HWMUL=130 -Z(CONST)INFO=1000-10FF         #
#                            -Z(CONST)INFOA=10C0-10FF                          #
#                            -Z(CONST)INFOB=1080-10BF                          #
#                            -Z(CONST)INFOC=1040-107F                          #
#                            -Z(CONST)INFOD=1000-103F                          #
#                            -Z(DATA)DATA16_I,DATA16_Z,DATA16_N,TLS16_I=1100-2 #
#                            0FF                                               #
#                            -Z(DATA)DATA16_HEAP+_DATA16_HEAP_SIZE             #
#                            -Z(DATA)CODE_I -Z(DATA)CSTACK+_STACK_SIZE#        #
#                            -Z(CONST)DATA16_C,DATA16_ID,TLS16_ID,DIFUNCT,CHEC #
#                            KSUM=8000-FFBF                                    #
#                            -Z(CODE)CSTART,ISR_CODE,CODE_ID=8000-FFBF         #
#                            -P(CODE)CODE=8000-FFBF -Z(CODE)INTVEC=FFC0-FFFF   #
#                            -Z(CODE)RESET=FFFE-FFFF) -f                       #
#                            "D:\IAR Systems\MSP430\430\config\linker\multipli #
#                            er.xcl"                                           #
#                            (-e?Mul8Hw=?Mul8 -e?Mul16Hw=?Mul16                #
#                            -e?Mul16to32uHw=?Mul16to32u                       #
#                            -e?Mul16to32sHw=?Mul16to32s -e?Mul32Hw=?Mul32     #
#                            -e_Mul64iHw=_Mul64i                               #
#                            -e_Mul32u32uto64iHw=_Mul32u32uto64i               #
#                            -e?Mul32fHw=_Mul32f -e_Mul64fHwPtr=_Mul64fPtr)    #
#                            -D_STACK_SIZE=50 -rt                              #
#                            "D:\IAR Systems\MSP430\430\lib\dlib\dl430fn.r43"  #
#                            -D_DATA16_HEAP_SIZE=50 -s __program_start         #
#                            -D_DATA20_HEAP_SIZE=50                            #
#                                                                              #
#                           Copyright (C) 1987-2015 IAR Systems AB.            #
################################################################################





                ****************************************
                *                                      *
                *           CROSS REFERENCE            *
                *                                      *
                ****************************************

       Program entry at :           80EA  Relocatable, from module : ?cstart




                ****************************************
                *                                      *
                *            RUNTIME MODEL             *
                *                                      *
                ****************************************

  __Heap_Handler             = Basic
  __SystemLibrary            = DLib
  __core                     = 430
  __dlib_file_descriptor     = 0
  __dlib_full_locale_support = 0
  __double_size              = 32
  __pic                      = no
  __reg_r4                   = free
  __reg_r5                   = free
  __rt_version               = 3

                ****************************************
                *                                      *
                *    AUTOMATIC SYMBOL REDIRECTIONS     *
                *                                      *
                ****************************************

                  There are no automatic symbol redirections.



                ****************************************
                *                                      *
                *              MODULE MAP              *
                *                                      *
                ****************************************


  DEFINED ABSOLUTE ENTRIES
    *************************************************************************

  DEFINED ABSOLUTE ENTRIES
  PROGRAM MODULE, NAME : ?ABS_ENTRY_MOD

Absolute parts
           ENTRY                   ADDRESS         REF BY
           =====                   =======         ======
           _DATA20_HEAP_SIZE       0050 
           _DATA16_HEAP_SIZE       0050 
           _STACK_SIZE             0050 
           __iar_HWMUL             0130            ?Mul32Hw (?Mul32Hw)
                                                   ?Mul32fHw (?Mul32fHw)
                                                   AD_cal (adc)
                                                   CSMABackOff (mac)
                                                   DataSend (tdma)
                                                   SendByCSMA (mac)
                                                   calibrateOnce (detect)
                                                   getAbsoluteValue (criteria)
                                                   getVariance (math)
                                                   quickCalibrate (detect)
    *************************************************************************

  FILE NAME : F:\Graduate\Git_program\MSP430F247-v6.2.0\Net\Debug\Obj\A7139.r43
  PROGRAM MODULE, NAME : A7139

  SEGMENTS IN THE MODULE
  ======================
DATA16_AN
  Relative segment, address: 0020 - 0020 (0x1 bytes), align: 0
  Segment part 1. ROOT        Intra module refs:   RecvDataACK (tdma)
                                                   SPIx_ReadByte (spi)
                                                   SPIx_ReadWord (spi)
                                                   Scan_Channel (join)
                                                   SendPack
                                                   TestSend (interrupt)
           ENTRY                   ADDRESS         REF BY
           =====                   =======         ======
           P1IN                    0020 
    -------------------------------------------------------------------------
DATA16_AN
  Relative segment, address: 0021 - 0021 (0x1 bytes), align: 0
  Segment part 2. ROOT        Intra module refs:   A7139_Init
                                                   A7139_ReadFIFO
                                                   A7139_ReadReg
                                                   A7139_SetCID
                                                   A7139_StrobeCmd
                                                   A7139_WriteFIFO
                                                   A7139_WriteReg
                                                   SPI3_Init (spi)
                                                   SPIx_ReadByte (spi)
                                                   SPIx_ReadWord (spi)
                                                   SPIx_WriteByte (spi)
                                                   SPIx_WriteWord (spi)
                                                   halDigioConfig (digio)
           ENTRY                   ADDRESS         REF BY
           =====                   =======         ======
           P1OUT                   0021 
    -------------------------------------------------------------------------
DATA16_AN
  Relative segment, address: 0162 - 0163 (0x2 bytes), align: 0
  Segment part 3. ROOT        Intra module refs:   A7139_Deep_Wake
                                                   CmdCalibration (detect)
                                                   CmdSendHandler (detect)
                                                   Timer_A0 (interrupt)
                                                   main (main)
                                                   time_init (timer)
           ENTRY                   ADDRESS         REF BY
           =====                   =======         ======
           TACCTL0                 0162 
    -------------------------------------------------------------------------
DATA16_Z
  Relative segment, address: 1106 - 1107 (0x2 bytes), align: 1
  Segment part 5.             Intra module refs:   Err_State
           ENTRY                   ADDRESS         REF BY
           =====                   =======         ======
           A7139_init_err_count    1106 
    -------------------------------------------------------------------------
<CODE> 1 (was CODE)
  Relative segment, address: B80A - B82B (0x22 bytes), align: 1
  Segment part 41.            Intra module refs:   A7139_Cal
                                                   A7139_Config
                                                   A7139_GetRSSI
                                                   A7139_ReadPageA
                                                   A7139_SetFreq
                                                   A7139_WritePageA
                                                   A7139_WritePageB
           LOCAL                   ADDRESS         
           =====                   =======         
           A7139_WriteReg          B80A 
               calls direct
    -------------------------------------------------------------------------
<CODE> 1 (was CODE)
  Relative segment, address: B778 - B79D (0x26 bytes), align: 1
  Segment part 40.            Intra module refs:   A7139_Cal
                                                   A7139_Config
                                                   A7139_GetRSSI
                                                   A7139_ReadPageA
           LOCAL                   ADDRESS         
           =====                   =======         
           A7139_ReadReg           B778 
               calls direct
    -------------------------------------------------------------------------
<CODE> 1 (was CODE)
  Relative segment, address: B606 - B631 (0x2c bytes), align: 1
  Segment part 39.            Intra module refs:   A7139_Cal
                                                   A7139_Config
                                                   A7139_SetPackLen
           LOCAL                   ADDRESS         
           =====                   =======         
           A7139_WritePageA        B606 
               calls direct
    -------------------------------------------------------------------------
<CODE> 1 (was CODE)
  Relative segment, address: B5AA - B5D7 (0x2e bytes), align: 1
  Segment part 38.            Intra module refs:   A7139_Config
                                                   A7139_SetFreq
           LOCAL                   ADDRESS         
           =====                   =======         
           A7139_WritePageB        B5AA 
               calls direct
    -------------------------------------------------------------------------
<CODE> 1 (was CODE)
  Relative segment, address: B704 - B72B (0x28 bytes), align: 1
  Segment part 37.            Intra module refs:   A7139_Cal
           LOCAL                   ADDRESS         
           =====                   =======         
           A7139_ReadPageA         B704 
               calls direct
    -------------------------------------------------------------------------
DATA16_Z
  Relative segment, address: 1108 - 1109 (0x2 bytes), align: 1
  Segment part 6.             Intra module refs:   A7139_Config
           ENTRY                   ADDRESS         REF BY
           =====                   =======         ======
           look                    1108 
    -------------------------------------------------------------------------
<CODE> 1 (was CODE)
  Relative segment, address: A3E6 - A471 (0x8c bytes), align: 1
  Segment part 36.            Intra module refs:   A7139_Init
           LOCAL                   ADDRESS         
           =====                   =======         
           A7139_Config            A3E6 
               calls direct
    -------------------------------------------------------------------------
<CODE> 1 (was CODE)
  Relative segment, address: B632 - B65D (0x2c bytes), align: 1
  Segment part 35.            Intra module refs:   A7139_Cal
                                                   A7139_Config
           ENTRY                   ADDRESS         REF BY
           =====                   =======         ======
           Err_State               B632 
               calls direct
    -------------------------------------------------------------------------
<CODE> 1 (was CODE)
  Relative segment, address: 9564 - 9653 (0xf0 bytes), align: 1
  Segment part 34.            Intra module refs:   A7139_Init
           ENTRY                   ADDRESS         REF BY
           =====                   =======         ======
           A7139_Cal               9564            ChannelSelection (join)
                                                   ChannelSelectionOnce (join)
                                                   Scan_Channel (join)
               calls direct
    -------------------------------------------------------------------------
<CODE> 1 (was CODE)
  Relative segment, address: 9654 - 972D (0xda bytes), align: 1
  Segment part 33.            Intra module refs:   A7139_Init
           ENTRY                   ADDRESS         REF BY
           =====                   =======         ======
           A7139_SetFreq           9654            ChannelSelection (join)
                                                   ChannelSelectionOnce (join)
                                                   Scan_Channel (join)
               calls direct
    -------------------------------------------------------------------------
<CODE> 1 (was CODE)
  Relative segment, address: B9E0 - B9ED (0xe bytes), align: 1
  Segment part 31.            Intra module refs:   A7139_DeepSleep
                                                   A7139_Deep_Wake
                                                   A7139_GetRSSI
                                                   A7139_Init
                                                   A7139_ReadFIFO
                                                   A7139_SetFreq
                                                   A7139_SetPackLen
                                                   A7139_Sleep
                                                   A7139_Wake
                                                   A7139_WriteFIFO
                                                   RXMode
                                                   SendPack
           ENTRY                   ADDRESS         REF BY
           =====                   =======         ======
           A7139_StrobeCmd         B9E0            CmdSendHandler (detect)
                                                   SortChannel (join)
                                                   TestSend (interrupt)
                                                   port1_ISR (interrupt)
               calls direct
    -------------------------------------------------------------------------
<CODE> 1 (was CODE)
  Relative segment, address: A70E - A78B (0x7e bytes), align: 1
  Segment part 30.            Intra module refs:   A7139_Deep_Wake
           ENTRY                   ADDRESS         REF BY
           =====                   =======         ======
           A7139_Init              A70E            CmdSendHandler (detect)
                                                   ReJoinHandler (join)
                                                   SortChannel (join)
                                                   main (main)
               calls direct
    -------------------------------------------------------------------------
<CODE> 1 (was CODE)
  Relative segment, address: AF8C - AFE5 (0x5a bytes), align: 1
  Segment part 29.            Intra module refs:   A7139_Init
           ENTRY                   ADDRESS         REF BY
           =====                   =======         ======
           A7139_SetCID            AF8C 
               calls direct
    -------------------------------------------------------------------------
<CODE> 1 (was CODE)
  Relative segment, address: B40C - B443 (0x38 bytes), align: 1
  Segment part 26.            Intra module refs:   A7139_Config
           ENTRY                   ADDRESS         REF BY
           =====                   =======         ======
           A7139_SetPackLen        B40C            CmdSendHandler (detect)
               calls direct
    -------------------------------------------------------------------------
<CODE> 1 (was CODE)
  Relative segment, address: AE76 - AED3 (0x5e bytes), align: 1
  Segment part 24.            Intra module refs:   SendPack
           ENTRY                   ADDRESS         REF BY
           =====                   =======         ======
           A7139_WriteFIFO         AE76            TestSend (interrupt)
               calls direct
    -------------------------------------------------------------------------
<CODE> 1 (was CODE)
  Relative segment, address: B250 - B295 (0x46 bytes), align: 1
  Segment part 23.
           ENTRY                   ADDRESS         REF BY
           =====                   =======         ======
           A7139_ReadFIFO          B250            RecvDataACK (tdma)
                                                   Scan_Channel (join)
                                                   port1_ISR (interrupt)
               calls direct
    -------------------------------------------------------------------------
<CODE> 1 (was CODE)
  Relative segment, address: 9FD0 - A06D (0x9e bytes), align: 1
  Segment part 21.
           ENTRY                   ADDRESS         REF BY
           =====                   =======         ======
           A7139_GetRSSI           9FD0            Scan_Channel (join)
                                                   SendByCSMA (mac)
               calls direct
    -------------------------------------------------------------------------
<CODE> 1 (was CODE)
  Relative segment, address: BAA2 - BAA3 (0x2 bytes), align: 1
  Segment part 17.            Intra module refs:   A7139_Init
           ENTRY                   ADDRESS         REF BY
           =====                   =======         ======
           Correct_State           BAA2 
    -------------------------------------------------------------------------
<CODE> 1 (was CODE)
  Relative segment, address: B65E - B689 (0x2c bytes), align: 1
  Segment part 14.            Intra module refs:   A7139_Deep_Wake
                                                   A7139_WakeToRecv
           ENTRY                   ADDRESS         REF BY
           =====                   =======         ======
           RXMode                  B65E            ChannelSelection (join)
                                                   ChannelSelectionOnce (join)
                                                   CmdSendHandler (detect)
                                                   DataSend (tdma)
                                                   Interrupt_Init (interrupt)
                                                   RecvDataACK (tdma)
                                                   Scan_Channel (join)
                                                   SendByCSMA (mac)
                                                   SortChannel (join)
               calls direct
    -------------------------------------------------------------------------
<CODE> 1 (was CODE)
  Relative segment, address: AA3C - AAA5 (0x6a bytes), align: 1
  Segment part 13.
           ENTRY                   ADDRESS         REF BY
           =====                   =======         ======
           SendPack                AA3C            DataSend (tdma)
                                                   SendByCSMA (mac)
               calls direct
    -------------------------------------------------------------------------
<CODE> 1 (was CODE)
  Relative segment, address: BA40 - BA47 (0x8 bytes), align: 1
  Segment part 12.
           ENTRY                   ADDRESS         REF BY
           =====                   =======         ======
           A7139_Sleep             BA40            BeaconHandler (mac)
                                                   DataSend (tdma)
               calls direct
    -------------------------------------------------------------------------
<CODE> 1 (was CODE)
  Relative segment, address: BA48 - BA4F (0x8 bytes), align: 1
  Segment part 11.
           ENTRY                   ADDRESS         REF BY
           =====                   =======         ======
           A7139_DeepSleep         BA48            DataSend (tdma)
                                                   SortChannel (join)
               calls direct
    -------------------------------------------------------------------------
<CODE> 1 (was CODE)
  Relative segment, address: B72C - B751 (0x26 bytes), align: 1
  Segment part 10.            Intra module refs:   A7139_WakeToRecv
           ENTRY                   ADDRESS         REF BY
           =====                   =======         ======
           A7139_Wake              B72C            DataSend (tdma)
               calls direct
    -------------------------------------------------------------------------
<CODE> 1 (was CODE)
  Relative segment, address: BA50 - BA57 (0x8 bytes), align: 1
  Segment part 9.
           ENTRY                   ADDRESS         REF BY
           =====                   =======         ======
           A7139_WakeToRecv        BA50            Process_Event (ProcessEvent)
               calls direct
    -------------------------------------------------------------------------
<CODE> 1 (was CODE)
  Relative segment, address: A35A - A3E5 (0x8c bytes), align: 1
  Segment part 8.             Intra module refs:   A7139_Reset
           ENTRY                   ADDRESS         REF BY
           =====                   =======         ======
           A7139_Deep_Wake         A35A            IdentifyCar (detect)
                                                   KeepAliveSend (tdma)
               calls direct
    -------------------------------------------------------------------------
<CODE> 1 (was CODE)
  Relative segment, address: BA84 - BA87 (0x4 bytes), align: 1
  Segment part 7.
           ENTRY                   ADDRESS         REF BY
           =====                   =======         ======
           A7139_Reset             BA84            Process_Event (ProcessEvent)
               calls direct

    *************************************************************************

  FILE NAME : F:\Graduate\Git_program\MSP430F247-v6.2.0\Net\Debug\Obj\A7139_CONFIG.r43
  PROGRAM MODULE, NAME : A7139_CONFIG

  SEGMENTS IN THE MODULE
  ======================
DATA16_C
  Relative segment, address: 8000 - 801F (0x20 bytes), align: 1
  Segment part 2.
           ENTRY                   ADDRESS         REF BY
           =====                   =======         ======
           A7139Config             8000            A7139_Cal (A7139)
                                                   A7139_Config (A7139)
                                                   A7139_GetRSSI (A7139)
                                                   A7139_ReadPageA (A7139)
                                                   A7139_SetFreq (A7139)
                                                   A7139_WritePageA (A7139)
                                                   A7139_WritePageB (A7139)
    -------------------------------------------------------------------------
DATA16_C
  Relative segment, address: 8020 - 803F (0x20 bytes), align: 1
  Segment part 3.
           ENTRY                   ADDRESS         REF BY
           =====                   =======         ======
           A7139Config_PageA       8020            A7139_Cal (A7139)
                                                   A7139_Config (A7139)
                                                   A7139_SetPackLen (A7139)
    -------------------------------------------------------------------------
DATA16_C
  Relative segment, address: 8040 - 8049 (0xa bytes), align: 1
  Segment part 4.
           ENTRY                   ADDRESS         REF BY
           =====                   =======         ======
           A7139Config_PageB       8040            A7139_Config (A7139)

    *************************************************************************

  FILE NAME : F:\Graduate\Git_program\MSP430F247-v6.2.0\Net\Debug\Obj\adc.r43
  PROGRAM MODULE, NAME : adc

  SEGMENTS IN THE MODULE
  ======================
DATA16_AN
  Relative segment, address: 01A0 - 01A1 (0x2 bytes), align: 0
  Segment part 1. ROOT        Intra module refs:   AD_Init
           ENTRY                   ADDRESS         REF BY
           =====                   =======         ======
           ADC12CTL0               01A0 
    -------------------------------------------------------------------------
DATA16_AN
  Relative segment, address: 01A2 - 01A3 (0x2 bytes), align: 0
  Segment part 2. ROOT        Intra module refs:   AD_Init
           ENTRY                   ADDRESS         REF BY
           =====                   =======         ======
           ADC12CTL1               01A2 
    -------------------------------------------------------------------------
DATA16_AN
  Relative segment, address: 0140 - 0141 (0x2 bytes), align: 0
  Segment part 3. ROOT 
           ENTRY                   ADDRESS         REF BY
           =====                   =======         ======
           ADC12MEM0               0140 
    -------------------------------------------------------------------------
DATA16_AN
  Relative segment, address: 0080 - 0080 (0x1 bytes), align: 0
  Segment part 4. ROOT 
           ENTRY                   ADDRESS         REF BY
           =====                   =======         ======
           ADC12MCTL0              0080 
    -------------------------------------------------------------------------
DATA16_AN
  Relative segment, address: 0035 - 0035 (0x1 bytes), align: 0
  Segment part 5. ROOT        Intra module refs:   halDigioConfig (digio)
           ENTRY                   ADDRESS         REF BY
           =====                   =======         ======
           P6OUT                   0035 
    -------------------------------------------------------------------------
DATA16_AN
  Relative segment, address: 0036 - 0036 (0x1 bytes), align: 0
  Segment part 6. ROOT        Intra module refs:   AD_Init
                                                   halDigioConfig (digio)
           ENTRY                   ADDRESS         REF BY
           =====                   =======         ======
           P6DIR                   0036 
    -------------------------------------------------------------------------
DATA16_AN
  Relative segment, address: 0037 - 0037 (0x1 bytes), align: 0
  Segment part 7. ROOT        Intra module refs:   AD_Init
                                                   halDigioConfig (digio)
           ENTRY                   ADDRESS         REF BY
           =====                   =======         ======
           P6SEL                   0037 
    -------------------------------------------------------------------------
<CODE> 1 (was CODE)
  Relative segment, address: B890 - B8AF (0x20 bytes), align: 1
  Segment part 15.
           ENTRY                   ADDRESS         REF BY
           =====                   =======         ======
           AD_Init                 B890            halBoardInit (board)
               calls direct
    -------------------------------------------------------------------------
<CODE> 1 (was CODE)
  Relative segment, address: BA60 - BA67 (0x8 bytes), align: 1
  Segment part 12.            Intra module refs:   ADC12_ISR::??INTVEC 42
           ENTRY                   ADDRESS         REF BY
           =====                   =======         ======
           ADC12_ISR               BA60 
               interrupt function
    -------------------------------------------------------------------------
<CODE> 1 (was CODE)
  Relative segment, address: 8396 - 85B1 (0x21c bytes), align: 1
  Segment part 11.
           ENTRY                   ADDRESS         REF BY
           =====                   =======         ======
           AD_cal                  8396            halBoardInit (board)
               calls direct
    -------------------------------------------------------------------------
INTVEC
  Common segment, address: FFC0 - FFEB (0x2c bytes), align: 1
  Segment part 8. ROOT 
           ENTRY                   ADDRESS         REF BY
           =====                   =======         ======
           ADC12_ISR::??INTVEC 42
                                   FFEA 

    *************************************************************************

  FILE NAME : F:\Graduate\Git_program\MSP430F247-v6.2.0\Net\Debug\Obj\board.r43
  PROGRAM MODULE, NAME : board

  SEGMENTS IN THE MODULE
  ======================
<CODE> 1 (was CODE)
  Relative segment, address: B398 - B3D1 (0x3a bytes), align: 1
  Segment part 3.
           ENTRY                   ADDRESS         REF BY
           =====                   =======         ======
           halBoardInit            B398            main (main)
               calls direct

    *************************************************************************

  FILE NAME : F:\Graduate\Git_program\MSP430F247-v6.2.0\Net\Debug\Obj\criteria.r43
  PROGRAM MODULE, NAME : criteria

  SEGMENTS IN THE MODULE
  ======================
DATA16_Z
  Relative segment, address: 110A - 110B (0x2 bytes), align: 1
  Segment part 2.             Intra module refs:   getMaxDiameter
           ENTRY                   ADDRESS         REF BY
           =====                   =======         ======
           diameterbuf             110A            IdentifyCar (detect)
                                                   compactnessStable (detect)
    -------------------------------------------------------------------------
DATA16_Z
  Relative segment, address: 110C - 110D (0x2 bytes), align: 1
  Segment part 3.             Intra module refs:   getMaxDiameter
           ENTRY                   ADDRESS         REF BY
           =====                   =======         ======
           max_x                   110C            IdentifyCar (detect)
    -------------------------------------------------------------------------
DATA16_Z
  Relative segment, address: 110E - 110F (0x2 bytes), align: 1
  Segment part 4.             Intra module refs:   getMaxDiameter
           ENTRY                   ADDRESS         REF BY
           =====                   =======         ======
           max_y                   110E            IdentifyCar (detect)
    -------------------------------------------------------------------------
DATA16_Z
  Relative segment, address: 1110 - 1111 (0x2 bytes), align: 1
  Segment part 5.             Intra module refs:   getPerimeter
           ENTRY                   ADDRESS         REF BY
           =====                   =======         ======
           perimeterbuf            1110            IdentifyCar (detect)
                                                   compactnessStable (detect)
    -------------------------------------------------------------------------
<CODE> 1 (was CODE)
  Relative segment, address: B47C - B4B3 (0x38 bytes), align: 1
  Segment part 12.
           ENTRY                   ADDRESS         REF BY
           =====                   =======         ======
           getAbsoluteValue        B47C            IdentifyCar (detect)
               calls direct
    -------------------------------------------------------------------------
<CODE> 1 (was CODE)
  Relative segment, address: B870 - B88F (0x20 bytes), align: 1
  Segment part 11.
           ENTRY                   ADDRESS         REF BY
           =====                   =======         ======
           getExtremum             B870            IdentifyCar (detect)
               calls direct
    -------------------------------------------------------------------------
<CODE> 1 (was CODE)
  Relative segment, address: AC3A - AC9B (0x62 bytes), align: 1
  Segment part 9.
           ENTRY                   ADDRESS         REF BY
           =====                   =======         ======
           getEuclideanMetric      AC3A            IdentifyCar (detect)
                                                   leaveRecognition (detect)
                                                   parkingStableSet (detect)
                                                   saveMiddle (detect)
               calls direct
    -------------------------------------------------------------------------
<CODE> 1 (was CODE)
  Relative segment, address: A2CA - A359 (0x90 bytes), align: 1
  Segment part 8.             Intra module refs:   getCompatness
           ENTRY                   ADDRESS         REF BY
           =====                   =======         ======
           getMaxDiameter          A2CA 
               calls direct
    -------------------------------------------------------------------------
<CODE> 1 (was CODE)
  Relative segment, address: B20A - B24F (0x46 bytes), align: 1
  Segment part 7.             Intra module refs:   getCompatness
           ENTRY                   ADDRESS         REF BY
           =====                   =======         ======
           getPerimeter            B20A 
               calls direct
    -------------------------------------------------------------------------
<CODE> 1 (was CODE)
  Relative segment, address: ACFE - AD5B (0x5e bytes), align: 1
  Segment part 6.
           ENTRY                   ADDRESS         REF BY
           =====                   =======         ======
           getCompatness           ACFE            IdentifyCar (detect)
               calls direct

    *************************************************************************

  FILE NAME : F:\Graduate\Git_program\MSP430F247-v6.2.0\Net\Debug\Obj\delay.r43
  PROGRAM MODULE, NAME : delay

  SEGMENTS IN THE MODULE
  ======================
<CODE> 1 (was CODE)
  Relative segment, address: B902 - B919 (0x18 bytes), align: 1
  Segment part 15.
           ENTRY                   ADDRESS         REF BY
           =====                   =======         ======
           delayus                 B902            CSMABackOff (mac)
    -------------------------------------------------------------------------
<CODE> 1 (was CODE)
  Relative segment, address: B9C2 - B9D1 (0x10 bytes), align: 1
  Segment part 12.            Intra module refs:   delay_10us
           ENTRY                   ADDRESS         REF BY
           =====                   =======         ======
           delay_1us               B9C2            SPI_read_write (PNI)
                                                   SPIx_ReadByte (spi)
                                                   SPIx_ReadWord (spi)
                                                   SPIx_WriteByte (spi)
                                                   SPIx_WriteWord (spi)
    -------------------------------------------------------------------------
<CODE> 1 (was CODE)
  Relative segment, address: B4E8 - B519 (0x32 bytes), align: 1
  Segment part 11.            Intra module refs:   delay_100us
           ENTRY                   ADDRESS         REF BY
           =====                   =======         ======
           delay_10us              B4E8            A7139_ReadReg (A7139)
                                                   A7139_WriteReg (A7139)
               calls direct
    -------------------------------------------------------------------------
<CODE> 1 (was CODE)
  Relative segment, address: B6DC - B703 (0x28 bytes), align: 1
  Segment part 9.             Intra module refs:   delay_1ms
           ENTRY                   ADDRESS         REF BY
           =====                   =======         ======
           delay_100us             B6DC            DataSend (tdma)
                                                   RecvDataACK (tdma)
                                                   SendByCSMA (mac)
               calls direct
    -------------------------------------------------------------------------
<CODE> 1 (was CODE)
  Relative segment, address: B6B4 - B6DB (0x28 bytes), align: 1
  Segment part 7.
           ENTRY                   ADDRESS         REF BY
           =====                   =======         ======
           delay_1ms               B6B4            AD_Init (adc)
                                                   Scan_Channel (join)
                                                   SendPack (A7139)
               calls direct

    *************************************************************************

  FILE NAME : F:\Graduate\Git_program\MSP430F247-v6.2.0\Net\Debug\Obj\detect.r43
  PROGRAM MODULE, NAME : detect

  SEGMENTS IN THE MODULE
  ======================
DATA16_AN
  Relative segment, address: 0025 - 0025 (0x1 bytes), align: 0
  Segment part 1. ROOT        Intra module refs:   DataSend (tdma)
                                                   IdentifyCar
                                                   Interrupt_Init (interrupt)
                                                   KeepAliveSend (tdma)
                                                   main (main)
           ENTRY                   ADDRESS         REF BY
           =====                   =======         ======
           P1IE                    0025 
    -------------------------------------------------------------------------
DATA16_AN
  Relative segment, address: 0120 - 0121 (0x2 bytes), align: 0
  Segment part 3. ROOT        Intra module refs:   CmdHandler
                                                   halMcuInit (mcu)
                                                   time_init (timer)
           ENTRY                   ADDRESS         REF BY
           =====                   =======         ======
           WDTCTL                  0120 
    -------------------------------------------------------------------------
DATA16_Z
  Relative segment, address: 128C - 128C (0x1 bytes), align: 0
  Segment part 5.             Intra module refs:   VarianceMultiState
           ENTRY                   ADDRESS         REF BY
           =====                   =======         ======
           VState1_Count           128C 
    -------------------------------------------------------------------------
DATA16_Z
  Relative segment, address: 128D - 128D (0x1 bytes), align: 0
  Segment part 6.             Intra module refs:   VarianceMultiState
           ENTRY                   ADDRESS         REF BY
           =====                   =======         ======
           VState2_Count           128D 
    -------------------------------------------------------------------------
DATA16_Z
  Relative segment, address: 128E - 128E (0x1 bytes), align: 0
  Segment part 7.             Intra module refs:   VarianceMultiState
           ENTRY                   ADDRESS         REF BY
           =====                   =======         ======
           VState3_Count           128E 
    -------------------------------------------------------------------------
DATA16_Z
  Relative segment, address: 128F - 128F (0x1 bytes), align: 0
  Segment part 8.             Intra module refs:   ExtremumMultiState
           ENTRY                   ADDRESS         REF BY
           =====                   =======         ======
           EState1_Count           128F 
    -------------------------------------------------------------------------
DATA16_Z
  Relative segment, address: 1290 - 1290 (0x1 bytes), align: 0
  Segment part 9.             Intra module refs:   ExtremumMultiState
           ENTRY                   ADDRESS         REF BY
           =====                   =======         ======
           EState2_Count           1290 
    -------------------------------------------------------------------------
DATA16_Z
  Relative segment, address: 1291 - 1291 (0x1 bytes), align: 0
  Segment part 10.            Intra module refs:   ExtremumMultiState
           ENTRY                   ADDRESS         REF BY
           =====                   =======         ======
           EState3_Count           1291 
    -------------------------------------------------------------------------
DATA16_Z
  Relative segment, address: 1292 - 1292 (0x1 bytes), align: 0
  Segment part 11.            Intra module refs:   DistanceMultiState
           ENTRY                   ADDRESS         REF BY
           =====                   =======         ======
           IState1_Count           1292 
    -------------------------------------------------------------------------
DATA16_Z
  Relative segment, address: 1293 - 1293 (0x1 bytes), align: 0
  Segment part 12.            Intra module refs:   DistanceMultiState
           ENTRY                   ADDRESS         REF BY
           =====                   =======         ======
           IState2_Count           1293 
    -------------------------------------------------------------------------
DATA16_Z
  Relative segment, address: 1294 - 1294 (0x1 bytes), align: 0
  Segment part 13.            Intra module refs:   DistanceMultiState
           ENTRY                   ADDRESS         REF BY
           =====                   =======         ======
           IState3_Count           1294 
    -------------------------------------------------------------------------
DATA16_Z
  Relative segment, address: 1112 - 1159 (0x48 bytes), align: 1
  Segment part 14.            Intra module refs:   DistanceMultiState
                                                   ExtremumMultiState
                                                   IdentifyCar
                                                   TotalJudge
                                                   VarianceMultiState
                                                   calibrateOnce
                                                   compactnessStable
                                                   leaveRecognition
                                                   parkingStableSet
                                                   quickCalibrate
                                                   saveMiddle
           ENTRY                   ADDRESS         REF BY
           =====                   =======         ======
           MagneticUnit            1112            AD_cal (adc)
                                                   ReJoinHandler (join)
                                                   TestSend (interrupt)
                                                   getAbsoluteValue (criteria)
                                                   getCompatness (criteria)
                                                   getExtremum (criteria)
    -------------------------------------------------------------------------
DATA16_Z
  Relative segment, address: 115A - 115B (0x2 bytes), align: 1
  Segment part 17.            Intra module refs:   TotalJudge
           ENTRY                   ADDRESS         REF BY
           =====                   =======         ======
           CarStableCount          115A 
    -------------------------------------------------------------------------
DATA16_Z
  Relative segment, address: 115C - 115D (0x2 bytes), align: 1
  Segment part 18.            Intra module refs:   NoCarCalibration
                                                   TotalJudge
           ENTRY                   ADDRESS         REF BY
           =====                   =======         ======
           no_car_stable_count     115C 
    -------------------------------------------------------------------------
DATA16_Z
  Relative segment, address: 1295 - 1295 (0x1 bytes), align: 0
  Segment part 27.            Intra module refs:   ReCal
           ENTRY                   ADDRESS         REF BY
           =====                   =======         ======
           ReCal_Count             1295 
    -------------------------------------------------------------------------
DATA16_Z
  Relative segment, address: 115E - 115F (0x2 bytes), align: 1
  Segment part 31.            Intra module refs:   ExtremumMultiState
           ENTRY                   ADDRESS         REF BY
           =====                   =======         ======
           Ext_Threshold           115E            AD_cal (adc)
    -------------------------------------------------------------------------
DATA16_Z
  Relative segment, address: 1160 - 1161 (0x2 bytes), align: 1
  Segment part 32.
           ENTRY                   ADDRESS         REF BY
           =====                   =======         ======
           Int_Threshold           1160            AD_cal (adc)
    -------------------------------------------------------------------------
DATA16_Z
  Relative segment, address: 1162 - 1163 (0x2 bytes), align: 1
  Segment part 33.            Intra module refs:   VarianceMultiState
           ENTRY                   ADDRESS         REF BY
           =====                   =======         ======
           Var_Threshold           1162            AD_cal (adc)
    -------------------------------------------------------------------------
DATA16_Z
  Relative segment, address: 1164 - 1165 (0x2 bytes), align: 1
  Segment part 34.            Intra module refs:   DistanceMultiState
           ENTRY                   ADDRESS         REF BY
           =====                   =======         ======
           Dis_Threshold           1164            AD_cal (adc)
    -------------------------------------------------------------------------
DATA16_Z
  Relative segment, address: 1296 - 1296 (0x1 bytes), align: 0
  Segment part 35.            Intra module refs:   IdentifyCar
           ENTRY                   ADDRESS         REF BY
           =====                   =======         ======
           Exit_Sleep              1296            DataSend (tdma)
                                                   PostTask (ProcessEvent)
                                                   SendByCSMA (mac)
                                                   Timer_A0 (interrupt)
    -------------------------------------------------------------------------
DATA16_Z
  Relative segment, address: 1297 - 1297 (0x1 bytes), align: 0
  Segment part 36.            Intra module refs:   CmdSendHandler
                                                   IdentifyCar
                                                   TotalJudge
           ENTRY                   ADDRESS         REF BY
           =====                   =======         ======
           On_Test                 1297 
    -------------------------------------------------------------------------
DATA16_Z
  Relative segment, address: 1166 - 1169 (0x4 bytes), align: 1
  Segment part 37.            Intra module refs:   compactnessStable
           ENTRY                   ADDRESS         REF BY
           =====                   =======         ======
           compatness_memory       1166 
    -------------------------------------------------------------------------
DATA16_Z
  Relative segment, address: 116A - 116B (0x2 bytes), align: 1
  Segment part 38.            Intra module refs:   compactnessStable
           ENTRY                   ADDRESS         REF BY
           =====                   =======         ======
           compatness_stable_count
                                   116A 
    -------------------------------------------------------------------------
DATA16_Z
  Relative segment, address: 116C - 116D (0x2 bytes), align: 1
  Segment part 39.            Intra module refs:   IdentifyCar
           ENTRY                   ADDRESS         REF BY
           =====                   =======         ======
           xvalue_memory           116C 
    -------------------------------------------------------------------------
DATA16_Z
  Relative segment, address: 116E - 116F (0x2 bytes), align: 1
  Segment part 40.            Intra module refs:   IdentifyCar
           ENTRY                   ADDRESS         REF BY
           =====                   =======         ======
           zvalue_memory           116E 
    -------------------------------------------------------------------------
DATA16_Z
  Relative segment, address: 1170 - 1179 (0xa bytes), align: 1
  Segment part 41.            Intra module refs:   IdentifyCar
                                                   TotalJudge
                                                   leaveRecognition
                                                   parkingStableSet
                                                   saveMiddle
                                                   vsEnvironment
           ENTRY                   ADDRESS         REF BY
           =====                   =======         ======
           x_middle_quene          1170            AD_cal (adc)
                                                   TestSend (interrupt)
    -------------------------------------------------------------------------
DATA16_Z
  Relative segment, address: 117A - 1183 (0xa bytes), align: 1
  Segment part 42.            Intra module refs:   leaveRecognition
                                                   parkingStableSet
                                                   saveMiddle
                                                   vsEnvironment
           ENTRY                   ADDRESS         REF BY
           =====                   =======         ======
           y_middle_quene          117A            AD_cal (adc)
                                                   TestSend (interrupt)
    -------------------------------------------------------------------------
DATA16_Z
  Relative segment, address: 1184 - 118D (0xa bytes), align: 1
  Segment part 43.            Intra module refs:   IdentifyCar
                                                   TotalJudge
                                                   leaveRecognition
                                                   parkingStableSet
                                                   saveMiddle
                                                   vsEnvironment
           ENTRY                   ADDRESS         REF BY
           =====                   =======         ======
           z_middle_quene          1184            AD_cal (adc)
                                                   TestSend (interrupt)
    -------------------------------------------------------------------------
DATA16_I
  Relative segment, address: 1104 - 1104 (0x1 bytes), align: 0
  Segment part 44.            Intra module refs:   saveMiddle
           ENTRY                   ADDRESS         REF BY
           =====                   =======         ======
           middle_quene_count      1104 
    -------------------------------------------------------------------------
DATA16_Z
  Relative segment, address: 118E - 118F (0x2 bytes), align: 1
  Segment part 46.            Intra module refs:   TotalJudge
                                                   calibrateOnce
                                                   parkingStableSet
           ENTRY                   ADDRESS         REF BY
           =====                   =======         ======
           parking_time            118E            Timer_A0 (interrupt)
    -------------------------------------------------------------------------
DATA16_Z
  Relative segment, address: 1298 - 1298 (0x1 bytes), align: 0
  Segment part 47.            Intra module refs:   CmdCalibration
                                                   NoCarCalibration
                                                   TotalJudge
                                                   calibrateOnce
                                                   parkingStableSet
                                                   saveMiddle
           ENTRY                   ADDRESS         REF BY
           =====                   =======         ======
           parking_stable_flag     1298 
    -------------------------------------------------------------------------
DATA16_Z
  Relative segment, address: 1190 - 1191 (0x2 bytes), align: 1
  Segment part 48.            Intra module refs:   saveMiddle
           ENTRY                   ADDRESS         REF BY
           =====                   =======         ======
           update_middle_times     1190            TestSend (interrupt)
    -------------------------------------------------------------------------
DATA16_Z
  Relative segment, address: 1299 - 1299 (0x1 bytes), align: 0
  Segment part 49.            Intra module refs:   TotalJudge
           ENTRY                   ADDRESS         REF BY
           =====                   =======         ======
           leave_recognition_count
                                   1299 
    -------------------------------------------------------------------------
DATA16_Z
  Relative segment, address: 129A - 129A (0x1 bytes), align: 0
  Segment part 50.            Intra module refs:   TotalJudge
                                                   leaveRecognition
           ENTRY                   ADDRESS         REF BY
           =====                   =======         ======
           toggle_reason           129A            TestSend (interrupt)
    -------------------------------------------------------------------------
DATA16_Z
  Relative segment, address: 1192 - 1193 (0x2 bytes), align: 1
  Segment part 51.            Intra module refs:   leaveRecognition
           ENTRY                   ADDRESS         REF BY
           =====                   =======         ======
           toggle_distance_test    1192            TestSend (interrupt)
    -------------------------------------------------------------------------
DATA16_Z
  Relative segment, address: 1194 - 1197 (0x4 bytes), align: 1
  Segment part 52.            Intra module refs:   compactnessStable
           ENTRY                   ADDRESS         REF BY
           =====                   =======         ======
           compactness_latest      1194            TestSend (interrupt)
    -------------------------------------------------------------------------
DATA16_Z
  Relative segment, address: 1198 - 1199 (0x2 bytes), align: 1
  Segment part 53.            Intra module refs:   compactnessStable
           ENTRY                   ADDRESS         REF BY
           =====                   =======         ======
           diameterbuf_latest      1198            TestSend (interrupt)
    -------------------------------------------------------------------------
DATA16_Z
  Relative segment, address: 119A - 119B (0x2 bytes), align: 1
  Segment part 54.            Intra module refs:   compactnessStable
           ENTRY                   ADDRESS         REF BY
           =====                   =======         ======
           perimeterbuf_latest     119A            TestSend (interrupt)
    -------------------------------------------------------------------------
DATA16_Z
  Relative segment, address: 119C - 119D (0x2 bytes), align: 1
  Segment part 56.            Intra module refs:   dataCheck
           ENTRY                   ADDRESS         REF BY
           =====                   =======         ======
           xcheck                  119C            AD_cal (adc)
    -------------------------------------------------------------------------
DATA16_Z
  Relative segment, address: 119E - 119F (0x2 bytes), align: 1
  Segment part 57.            Intra module refs:   dataCheck
           ENTRY                   ADDRESS         REF BY
           =====                   =======         ======
           ycheck                  119E            AD_cal (adc)
    -------------------------------------------------------------------------
DATA16_Z
  Relative segment, address: 11A0 - 11A1 (0x2 bytes), align: 1
  Segment part 58.            Intra module refs:   dataCheck
           ENTRY                   ADDRESS         REF BY
           =====                   =======         ======
           zcheck                  11A0            AD_cal (adc)
    -------------------------------------------------------------------------
DATA16_Z
  Relative segment, address: 129B - 129B (0x1 bytes), align: 0
  Segment part 59.            Intra module refs:   dataCheck
           ENTRY                   ADDRESS         REF BY
           =====                   =======         ======
           check_error             129B 
    -------------------------------------------------------------------------
DATA16_Z
  Relative segment, address: 129C - 129C (0x1 bytes), align: 0
  Segment part 60.            Intra module refs:   TotalJudge
           ENTRY                   ADDRESS         REF BY
           =====                   =======         ======
           environment_over_count
                                   129C 
    -------------------------------------------------------------------------
DATA16_Z
  Relative segment, address: 129D - 129D (0x1 bytes), align: 0
  Segment part 61.            Intra module refs:   IdentifyCar
                                                   TotalJudge
           ENTRY                   ADDRESS         REF BY
           =====                   =======         ======
           force_assign_once       129D 
    -------------------------------------------------------------------------
<CODE> 1 (was CODE)
  Relative segment, address: AB0E - AB73 (0x66 bytes), align: 1
  Segment part 83.            Intra module refs:   IdentifyCar
           ENTRY                   ADDRESS         REF BY
           =====                   =======         ======
           dataCheck               AB0E 
               calls direct
    -------------------------------------------------------------------------
<CODE> 1 (was CODE)
  Relative segment, address: A60A - A68F (0x86 bytes), align: 1
  Segment part 82.            Intra module refs:   IdentifyCar
           ENTRY                   ADDRESS         REF BY
           =====                   =======         ======
           VarianceMultiState      A60A 
    -------------------------------------------------------------------------
<CODE> 1 (was CODE)
  Relative segment, address: A8F0 - A961 (0x72 bytes), align: 1
  Segment part 81.            Intra module refs:   IdentifyCar
           ENTRY                   ADDRESS         REF BY
           =====                   =======         ======
           ExtremumMultiState      A8F0 
    -------------------------------------------------------------------------
<CODE> 1 (was CODE)
  Relative segment, address: A9D0 - AA3B (0x6c bytes), align: 1
  Segment part 79.            Intra module refs:   IdentifyCar
           ENTRY                   ADDRESS         REF BY
           =====                   =======         ======
           DistanceMultiState      A9D0 
    -------------------------------------------------------------------------
<CODE> 1 (was CODE)
  Relative segment, address: 8942 - 8AD7 (0x196 bytes), align: 1
  Segment part 77.            Intra module refs:   CmdCalibration
                                                   NoCarCalibration
                                                   TotalJudge
           ENTRY                   ADDRESS         REF BY
           =====                   =======         ======
           quickCalibrate          8942 
               calls direct
    -------------------------------------------------------------------------
<CODE> 1 (was CODE)
  Relative segment, address: A236 - A2C9 (0x94 bytes), align: 1
  Segment part 76.            Intra module refs:   TotalJudge
           ENTRY                   ADDRESS         REF BY
           =====                   =======         ======
           calibrateOnce           A236 
               calls direct
    -------------------------------------------------------------------------
<CODE> 1 (was CODE)
  Relative segment, address: B7C2 - B7E5 (0x24 bytes), align: 1
  Segment part 75.            Intra module refs:   IdentifyCar
           ENTRY                   ADDRESS         REF BY
           =====                   =======         ======
           ReCal                   B7C2 
    -------------------------------------------------------------------------
<CODE> 1 (was CODE)
  Relative segment, address: ADBA - AE17 (0x5e bytes), align: 1
  Segment part 73.            Intra module refs:   IdentifyCar
           ENTRY                   ADDRESS         REF BY
           =====                   =======         ======
           compactnessStable       ADBA 
    -------------------------------------------------------------------------
<CODE> 1 (was CODE)
  Relative segment, address: 9806 - 98D9 (0xd4 bytes), align: 1
  Segment part 72.            Intra module refs:   TotalJudge
           ENTRY                   ADDRESS         REF BY
           =====                   =======         ======
           leaveRecognition        9806 
               calls direct
    -------------------------------------------------------------------------
<CODE> 1 (was CODE)
  Relative segment, address: 85B2 - 87A9 (0x1f8 bytes), align: 1
  Segment part 70.            Intra module refs:   CmdSendHandler
           ENTRY                   ADDRESS         REF BY
           =====                   =======         ======
           IdentifyCar             85B2            Process_Event (ProcessEvent)
                                                   Timer_A0 (interrupt)
               calls direct
    -------------------------------------------------------------------------
<CODE> 1 (was CODE)
  Relative segment, address: 9250 - 935F (0x110 bytes), align: 1
  Segment part 69.            Intra module refs:   IdentifyCar
           ENTRY                   ADDRESS         REF BY
           =====                   =======         ======
           TotalJudge              9250 
               calls direct
    -------------------------------------------------------------------------
<CODE> 1 (was CODE)
  Relative segment, address: A584 - A609 (0x86 bytes), align: 1
  Segment part 68.            Intra module refs:   TotalJudge
                                                   leaveRecognition
           ENTRY                   ADDRESS         REF BY
           =====                   =======         ======
           vsEnvironment           A584 
               calls direct
    -------------------------------------------------------------------------
<CODE> 1 (was CODE)
  Relative segment, address: 9D38 - 9DE3 (0xac bytes), align: 1
  Segment part 67.            Intra module refs:   CmdCalibration
                                                   NoCarCalibration
           ENTRY                   ADDRESS         REF BY
           =====                   =======         ======
           saveMiddle              9D38 
               calls direct
    -------------------------------------------------------------------------
<CODE> 1 (was CODE)
  Relative segment, address: B79E - B7C1 (0x24 bytes), align: 1
  Segment part 66.            Intra module refs:   TotalJudge
           ENTRY                   ADDRESS         REF BY
           =====                   =======         ======
           NoCarCalibration        B79E            Process_Event (ProcessEvent)
               calls direct
    -------------------------------------------------------------------------
<CODE> 1 (was CODE)
  Relative segment, address: A06E - A109 (0x9c bytes), align: 1
  Segment part 65.            Intra module refs:   IdentifyCar
           ENTRY                   ADDRESS         REF BY
           =====                   =======         ======
           parkingStableSet        A06E 
               calls direct
    -------------------------------------------------------------------------
<CODE> 1 (was CODE)
  Relative segment, address: B7E6 - B809 (0x24 bytes), align: 1
  Segment part 64.            Intra module refs:   CmdHandler
           ENTRY                   ADDRESS         REF BY
           =====                   =======         ======
           CmdCalibration          B7E6 
               calls direct
    -------------------------------------------------------------------------
<CODE> 1 (was CODE)
  Relative segment, address: 9F32 - 9FCF (0x9e bytes), align: 1
  Segment part 63.            Intra module refs:   CmdHandler
           ENTRY                   ADDRESS         REF BY
           =====                   =======         ======
           CmdSendHandler          9F32 
               calls direct
    -------------------------------------------------------------------------
<CODE> 1 (was CODE)
  Relative segment, address: B2DC - B31B (0x40 bytes), align: 1
  Segment part 62.
           ENTRY                   ADDRESS         REF BY
           =====                   =======         ======
           CmdHandler              B2DC            Process_Event (ProcessEvent)
               calls direct
    -------------------------------------------------------------------------
DATA16_ID
  Relative segment, address: 80E8 - 80E8 (0x1 bytes), align: 0
  Segment part 45.            Intra module refs:   middle_quene_count

    *************************************************************************

  FILE NAME : F:\Graduate\Git_program\MSP430F247-v6.2.0\Net\Debug\Obj\digio.r43
  PROGRAM MODULE, NAME : digio

  SEGMENTS IN THE MODULE
  ======================
DATA16_AN
  Relative segment, address: 0022 - 0022 (0x1 bytes), align: 0
  Segment part 3. ROOT        Intra module refs:   Interrupt_Init (interrupt)
                                                   MOSI_IN (spi)
                                                   MOSI_OUT (spi)
                                                   halDigioConfig
           ENTRY                   ADDRESS         REF BY
           =====                   =======         ======
           P1DIR                   0022 
    -------------------------------------------------------------------------
DATA16_AN
  Relative segment, address: 0023 - 0023 (0x1 bytes), align: 0
  Segment part 4. ROOT        Intra module refs:   Interrupt_Init (interrupt)
                                                   port1_ISR (interrupt)
           ENTRY                   ADDRESS         REF BY
           =====                   =======         ======
           P1IFG                   0023 
    -------------------------------------------------------------------------
DATA16_AN
  Relative segment, address: 0024 - 0024 (0x1 bytes), align: 0
  Segment part 5. ROOT        Intra module refs:   Interrupt_Init (interrupt)
           ENTRY                   ADDRESS         REF BY
           =====                   =======         ======
           P1IES                   0024 
    -------------------------------------------------------------------------
DATA16_AN
  Relative segment, address: 0026 - 0026 (0x1 bytes), align: 0
  Segment part 7. ROOT        Intra module refs:   halDigioConfig
           ENTRY                   ADDRESS         REF BY
           =====                   =======         ======
           P1SEL                   0026 
    -------------------------------------------------------------------------
DATA16_AN
  Relative segment, address: 0028 - 0028 (0x1 bytes), align: 0
  Segment part 8. ROOT 
           ENTRY                   ADDRESS         REF BY
           =====                   =======         ======
           P2IN                    0028 
    -------------------------------------------------------------------------
DATA16_AN
  Relative segment, address: 0029 - 0029 (0x1 bytes), align: 0
  Segment part 9. ROOT        Intra module refs:   GPIO_Init
                                                   halDigioConfig
           ENTRY                   ADDRESS         REF BY
           =====                   =======         ======
           P2OUT                   0029 
    -------------------------------------------------------------------------
DATA16_AN
  Relative segment, address: 002A - 002A (0x1 bytes), align: 0
  Segment part 10. ROOT       Intra module refs:   halDigioConfig
           ENTRY                   ADDRESS         REF BY
           =====                   =======         ======
           P2DIR                   002A 
    -------------------------------------------------------------------------
DATA16_AN
  Relative segment, address: 002B - 002B (0x1 bytes), align: 0
  Segment part 11. ROOT 
           ENTRY                   ADDRESS         REF BY
           =====                   =======         ======
           P2IFG                   002B 
    -------------------------------------------------------------------------
DATA16_AN
  Relative segment, address: 002C - 002C (0x1 bytes), align: 0
  Segment part 12. ROOT 
           ENTRY                   ADDRESS         REF BY
           =====                   =======         ======
           P2IES                   002C 
    -------------------------------------------------------------------------
DATA16_AN
  Relative segment, address: 002D - 002D (0x1 bytes), align: 0
  Segment part 13. ROOT 
           ENTRY                   ADDRESS         REF BY
           =====                   =======         ======
           P2IE                    002D 
    -------------------------------------------------------------------------
DATA16_AN
  Relative segment, address: 002E - 002E (0x1 bytes), align: 0
  Segment part 14. ROOT       Intra module refs:   halDigioConfig
           ENTRY                   ADDRESS         REF BY
           =====                   =======         ======
           P2SEL                   002E 
    -------------------------------------------------------------------------
DATA16_AN
  Relative segment, address: 0018 - 0018 (0x1 bytes), align: 0
  Segment part 15. ROOT       Intra module refs:   DataReady (PNI)
                                                   SPI_read_write (PNI)
           ENTRY                   ADDRESS         REF BY
           =====                   =======         ======
           P3IN                    0018 
    -------------------------------------------------------------------------
DATA16_AN
  Relative segment, address: 0019 - 0019 (0x1 bytes), align: 0
  Segment part 16. ROOT       Intra module refs:   PNI_GPIO_Init (PNI)
                                                   PNI_read_circle (PNI)
                                                   PNI_read_data (PNI)
                                                   PNI_write_TMRC (PNI)
                                                   PNI_write_circle (PNI)
                                                   SPI_read_write (PNI)
                                                   getOffset (PNI)
                                                   halDigioConfig
           ENTRY                   ADDRESS         REF BY
           =====                   =======         ======
           P3OUT                   0019 
    -------------------------------------------------------------------------
DATA16_AN
  Relative segment, address: 001A - 001A (0x1 bytes), align: 0
  Segment part 17. ROOT       Intra module refs:   halDigioConfig
           ENTRY                   ADDRESS         REF BY
           =====                   =======         ======
           P3DIR                   001A 
    -------------------------------------------------------------------------
DATA16_AN
  Relative segment, address: 001B - 001B (0x1 bytes), align: 0
  Segment part 18. ROOT       Intra module refs:   halDigioConfig
           ENTRY                   ADDRESS         REF BY
           =====                   =======         ======
           P3SEL                   001B 
    -------------------------------------------------------------------------
DATA16_AN
  Relative segment, address: 001C - 001C (0x1 bytes), align: 0
  Segment part 19. ROOT 
           ENTRY                   ADDRESS         REF BY
           =====                   =======         ======
           P4IN                    001C 
    -------------------------------------------------------------------------
DATA16_AN
  Relative segment, address: 001D - 001D (0x1 bytes), align: 0
  Segment part 20. ROOT       Intra module refs:   halDigioConfig
           ENTRY                   ADDRESS         REF BY
           =====                   =======         ======
           P4OUT                   001D 
    -------------------------------------------------------------------------
DATA16_AN
  Relative segment, address: 001E - 001E (0x1 bytes), align: 0
  Segment part 21. ROOT       Intra module refs:   halDigioConfig
           ENTRY                   ADDRESS         REF BY
           =====                   =======         ======
           P4DIR                   001E 
    -------------------------------------------------------------------------
DATA16_AN
  Relative segment, address: 001F - 001F (0x1 bytes), align: 0
  Segment part 22. ROOT       Intra module refs:   halDigioConfig
           ENTRY                   ADDRESS         REF BY
           =====                   =======         ======
           P4SEL                   001F 
    -------------------------------------------------------------------------
DATA16_AN
  Relative segment, address: 0030 - 0030 (0x1 bytes), align: 0
  Segment part 23. ROOT 
           ENTRY                   ADDRESS         REF BY
           =====                   =======         ======
           P5IN                    0030 
    -------------------------------------------------------------------------
DATA16_AN
  Relative segment, address: 0031 - 0031 (0x1 bytes), align: 0
  Segment part 24. ROOT       Intra module refs:   GPIO_Init
                                                   SortChannel (join)
                                                   halDigioConfig
           ENTRY                   ADDRESS         REF BY
           =====                   =======         ======
           P5OUT                   0031 
    -------------------------------------------------------------------------
DATA16_AN
  Relative segment, address: 0032 - 0032 (0x1 bytes), align: 0
  Segment part 25. ROOT       Intra module refs:   halDigioConfig
                                                   halLedSet (led)
           ENTRY                   ADDRESS         REF BY
           =====                   =======         ======
           P5DIR                   0032 
    -------------------------------------------------------------------------
DATA16_AN
  Relative segment, address: 0033 - 0033 (0x1 bytes), align: 0
  Segment part 26. ROOT       Intra module refs:   halDigioConfig
           ENTRY                   ADDRESS         REF BY
           =====                   =======         ======
           P5SEL                   0033 
    -------------------------------------------------------------------------
DATA16_AN
  Relative segment, address: 0034 - 0034 (0x1 bytes), align: 0
  Segment part 27. ROOT 
           ENTRY                   ADDRESS         REF BY
           =====                   =======         ======
           P6IN                    0034 
    -------------------------------------------------------------------------
<CODE> 1 (was CODE)
  Relative segment, address: 9B1C - 9BD5 (0xba bytes), align: 1
  Segment part 49.            Intra module refs:   GPIO_Init
           ENTRY                   ADDRESS         REF BY
           =====                   =======         ======
           halDigioConfig          9B1C            PNI_GPIO_Init (PNI)
                                                   SPI3_Init (spi)
               calls direct
    -------------------------------------------------------------------------
DATA16_C
  Relative segment, address: 808E - 8092 (0x5 bytes), align: 0
  Segment part 32.            Intra module refs:   GPIO_Init
           ENTRY                   ADDRESS         REF BY
           =====                   =======         ======
           pinLed1                 808E 
    -------------------------------------------------------------------------
DATA16_C
  Relative segment, address: 8093 - 8097 (0x5 bytes), align: 0
  Segment part 33.            Intra module refs:   GPIO_Init
           ENTRY                   ADDRESS         REF BY
           =====                   =======         ======
           pinLed2                 8093 
    -------------------------------------------------------------------------
DATA16_C
  Relative segment, address: 8098 - 809C (0x5 bytes), align: 0
  Segment part 34.            Intra module refs:   GPIO_Init
           ENTRY                   ADDRESS         REF BY
           =====                   =======         ======
           pinLed3                 8098 
    -------------------------------------------------------------------------
DATA16_C
  Relative segment, address: 809D - 80A1 (0x5 bytes), align: 0
  Segment part 35.            Intra module refs:   GPIO_Init
           ENTRY                   ADDRESS         REF BY
           =====                   =======         ======
           pinLed4                 809D 
    -------------------------------------------------------------------------
DATA16_C
  Relative segment, address: 80A2 - 80A6 (0x5 bytes), align: 0
  Segment part 36.            Intra module refs:   GPIO_Init
           ENTRY                   ADDRESS         REF BY
           =====                   =======         ======
           pinGIO2                 80A2            DataSend (tdma)
                                                   IdentifyCar (detect)
                                                   Interrupt_Init (interrupt)
                                                   KeepAliveSend (tdma)
                                                   main (main)
                                                   port1_ISR (interrupt)
    -------------------------------------------------------------------------
DATA16_C
  Relative segment, address: 80A7 - 80AB (0x5 bytes), align: 0
  Segment part 37.            Intra module refs:   GPIO_Init
           ENTRY                   ADDRESS         REF BY
           =====                   =======         ======
           pinGIO1                 80A7 
    -------------------------------------------------------------------------
DATA16_C
  Relative segment, address: 80AC - 80B0 (0x5 bytes), align: 0
  Segment part 38.            Intra module refs:   GPIO_Init
           ENTRY                   ADDRESS         REF BY
           =====                   =======         ======
           pinKZ                   80AC 
    -------------------------------------------------------------------------
DATA16_C
  Relative segment, address: 80B1 - 80B5 (0x5 bytes), align: 0
  Segment part 39.            Intra module refs:   GPIO_Init
           ENTRY                   ADDRESS         REF BY
           =====                   =======         ======
           A7139_EN                80B1 
    -------------------------------------------------------------------------
<CODE> 1 (was CODE)
  Relative segment, address: AFE6 - B03D (0x58 bytes), align: 1
  Segment part 40.
           ENTRY                   ADDRESS         REF BY
           =====                   =======         ======
           GPIO_Init               AFE6            halBoardInit (board)
               calls direct

    *************************************************************************

  FILE NAME : F:\Graduate\Git_program\MSP430F247-v6.2.0\Net\Debug\Obj\filter.r43
    *************************************************************************

  FILE NAME : F:\Graduate\Git_program\MSP430F247-v6.2.0\Net\Debug\Obj\flash.r43
  PROGRAM MODULE, NAME : flash

  SEGMENTS IN THE MODULE
  ======================
DATA16_AN
  Relative segment, address: 0128 - 0129 (0x2 bytes), align: 0
  Segment part 1. ROOT 
           ENTRY                   ADDRESS         REF BY
           =====                   =======         ======
           FCTL1                   0128 
    -------------------------------------------------------------------------
DATA16_AN
  Relative segment, address: 012A - 012B (0x2 bytes), align: 0
  Segment part 2. ROOT        Intra module refs:   FLASHInit
           ENTRY                   ADDRESS         REF BY
           =====                   =======         ======
           FCTL2                   012A 
    -------------------------------------------------------------------------
DATA16_AN
  Relative segment, address: 012C - 012D (0x2 bytes), align: 0
  Segment part 3. ROOT 
           ENTRY                   ADDRESS         REF BY
           =====                   =======         ======
           FCTL3                   012C 
    -------------------------------------------------------------------------
<CODE> 1 (was CODE)
  Relative segment, address: BA70 - BA77 (0x8 bytes), align: 1
  Segment part 14.
           ENTRY                   ADDRESS         REF BY
           =====                   =======         ======
           FLASHInit               BA70            halBoardInit (board)
    -------------------------------------------------------------------------
<CODE> 1 (was CODE)
  Relative segment, address: BA88 - BA8B (0x4 bytes), align: 1
  Segment part 10.            Intra module refs:   GetPhyAddress
           ENTRY                   ADDRESS         REF BY
           =====                   =======         ======
           FLASH_Readw             BA88 
    -------------------------------------------------------------------------
<CODE> 1 (was CODE)
  Relative segment, address: BA58 - BA5F (0x8 bytes), align: 1
  Segment part 7.
           ENTRY                   ADDRESS         REF BY
           =====                   =======         ======
           GetPhyAddress           BA58            main (main)
               calls direct

    *************************************************************************

  FILE NAME : F:\Graduate\Git_program\MSP430F247-v6.2.0\Net\Debug\Obj\int.r43
    *************************************************************************

  FILE NAME : F:\Graduate\Git_program\MSP430F247-v6.2.0\Net\Debug\Obj\interrupt.r43
  PROGRAM MODULE, NAME : interrupt

  SEGMENTS IN THE MODULE
  ======================
DATA16_AN
  Relative segment, address: 0027 - 0027 (0x1 bytes), align: 0
  Segment part 6. ROOT        Intra module refs:   Interrupt_Init
           ENTRY                   ADDRESS         REF BY
           =====                   =======         ======
           P1REN                   0027 
    -------------------------------------------------------------------------
DATA16_AN
  Relative segment, address: 0182 - 0183 (0x2 bytes), align: 0
  Segment part 8. ROOT        Intra module refs:   DataSend (tdma)
                                                   SendByCSMA (mac)
                                                   Timer_A
                                                   main (main)
                                                   port1_ISR
           ENTRY                   ADDRESS         REF BY
           =====                   =======         ======
           TBCCTL0                 0182 
    -------------------------------------------------------------------------
DATA16_Z
  Relative segment, address: 11A2 - 11A3 (0x2 bytes), align: 1
  Segment part 13.            Intra module refs:   port1_ISR
           ENTRY                   ADDRESS         REF BY
           =====                   =======         ======
           Receive_Timeout         11A2 
    -------------------------------------------------------------------------
DATA16_Z
  Relative segment, address: 11A4 - 11A7 (0x4 bytes), align: 1
  Segment part 14.            Intra module refs:   Timer_A
                                                   port1_ISR
           ENTRY                   ADDRESS         REF BY
           =====                   =======         ======
           Frame_Time              11A4            DataSend (tdma)
                                                   ReJoinHandler (join)
                                                   SendByCSMA (mac)
    -------------------------------------------------------------------------
DATA16_Z
  Relative segment, address: 11A8 - 11A9 (0x2 bytes), align: 1
  Segment part 16.            Intra module refs:   Timer_A0
           ENTRY                   ADDRESS         REF BY
           =====                   =======         ======
           Keep_Alive_Count        11A8 
    -------------------------------------------------------------------------
DATA16_Z
  Relative segment, address: 11AA - 11AB (0x2 bytes), align: 1
  Segment part 18.            Intra module refs:   Timer_A0
           ENTRY                   ADDRESS         REF BY
           =====                   =======         ======
           Int_Enable_Count        11AA            ReJoinHandler (join)
    -------------------------------------------------------------------------
DATA16_Z
  Relative segment, address: 129E - 129E (0x1 bytes), align: 0
  Segment part 19.            Intra module refs:   Timer_A0
                                                   port1_ISR
           ENTRY                   ADDRESS         REF BY
           =====                   =======         ======
           Send_Error_Flag         129E            ReJoinHandler (join)
                                                   SendPack (A7139)
    -------------------------------------------------------------------------
DATA16_Z
  Relative segment, address: 11AC - 11AD (0x2 bytes), align: 1
  Segment part 20.            Intra module refs:   Timer_A0
           ENTRY                   ADDRESS         REF BY
           =====                   =======         ======
           Send_Error_Count        11AC            ReJoinHandler (join)
    -------------------------------------------------------------------------
DATA16_Z
  Relative segment, address: 129F - 129F (0x1 bytes), align: 0
  Segment part 21.            Intra module refs:   Timer_A0
           ENTRY                   ADDRESS         REF BY
           =====                   =======         ======
           Start_Sleep_Flag        129F            DataACKHandler (tdma)
                                                   ReJoinHandler (join)
    -------------------------------------------------------------------------
<CODE> 1 (was CODE)
  Relative segment, address: B82C - B84D (0x22 bytes), align: 1
  Segment part 34.
           ENTRY                   ADDRESS         REF BY
           =====                   =======         ======
           Interrupt_Init          B82C            halBoardInit (board)
               calls direct
    -------------------------------------------------------------------------
<CODE> 1 (was CODE)
  Relative segment, address: 9E8C - 9F31 (0xa6 bytes), align: 1
  Segment part 33.            Intra module refs:   port1_ISR::??INTVEC 36
           ENTRY                   ADDRESS         REF BY
           =====                   =======         ======
           port1_ISR               9E8C 
               interrupt function
               calls direct
    -------------------------------------------------------------------------
<CODE> 1 (was CODE)
  Relative segment, address: B9D2 - B9DF (0xe bytes), align: 1
  Segment part 32.            Intra module refs:   Timer_A::??INTVEC 58
           ENTRY                   ADDRESS         REF BY
           =====                   =======         ======
           Timer_A                 B9D2 
               interrupt function
    -------------------------------------------------------------------------
DATA16_Z
  Relative segment, address: 12A0 - 12D7 (0x38 bytes), align: 0
  Segment part 28.            Intra module refs:   TestSend
           ENTRY                   ADDRESS         REF BY
           =====                   =======         ======
           DataSendDraw            12A0 
    -------------------------------------------------------------------------
DATA16_Z
  Relative segment, address: 12D8 - 12D8 (0x1 bytes), align: 0
  Segment part 29.            Intra module refs:   TestSend
           ENTRY                   ADDRESS         REF BY
           =====                   =======         ======
           switch_middle           12D8 
    -------------------------------------------------------------------------
<CODE> 1 (was CODE)
  Relative segment, address: 8112 - 8395 (0x284 bytes), align: 1
  Segment part 31.
           ENTRY                   ADDRESS         REF BY
           =====                   =======         ======
           TestSend                8112            CmdSendHandler (detect)
               calls direct
    -------------------------------------------------------------------------
<CODE> 1 (was CODE)
  Relative segment, address: 9360 - 9467 (0x108 bytes), align: 1
  Segment part 30.            Intra module refs:   Timer_A0::??INTVEC 50
           ENTRY                   ADDRESS         REF BY
           =====                   =======         ======
           Timer_A0                9360 
               interrupt function
               calls direct
    -------------------------------------------------------------------------
INTVEC
  Common segment, address: FFC0 - FFE5 (0x26 bytes), align: 1
  Segment part 9. ROOT 
           ENTRY                   ADDRESS         REF BY
           =====                   =======         ======
           port1_ISR::??INTVEC 36
                                   FFE4 
    -------------------------------------------------------------------------
INTVEC
  Common segment, address: FFC0 - FFF3 (0x34 bytes), align: 1
  Segment part 10. ROOT 
           ENTRY                   ADDRESS         REF BY
           =====                   =======         ======
           Timer_A0::??INTVEC 50   FFF2 
    -------------------------------------------------------------------------
INTVEC
  Common segment, address: FFC0 - FFFB (0x3c bytes), align: 1
  Segment part 11. ROOT 
           ENTRY                   ADDRESS         REF BY
           =====                   =======         ======
           Timer_A::??INTVEC 58    FFFA 

    *************************************************************************

  FILE NAME : F:\Graduate\Git_program\MSP430F247-v6.2.0\Net\Debug\Obj\join.r43
  PROGRAM MODULE, NAME : join

  SEGMENTS IN THE MODULE
  ======================
DATA16_C
  Relative segment, address: 804A - 808D (0x44 bytes), align: 1
  Segment part 4.             Intra module refs:   ChannelSelection
                                                   ChannelSelectionOnce
                                                   Scan_Channel
           ENTRY                   ADDRESS         REF BY
           =====                   =======         ======
           ChannelList             804A            A7139_Deep_Wake (A7139)
                                                   CmdSendHandler (detect)
    -------------------------------------------------------------------------
DATA16_Z
  Relative segment, address: 12D9 - 1318 (0x40 bytes), align: 0
  Segment part 9.             Intra module refs:   ChannelSelectionOnce
                                                   ReJoinHandler
                                                   Scan_Channel
                                                   SortChannel
           ENTRY                   ADDRESS         REF BY
           =====                   =======         ======
           ScanChannel             12D9 
    -------------------------------------------------------------------------
DATA16_Z
  Relative segment, address: 11AE - 11B5 (0x8 bytes), align: 1
  Segment part 10.            Intra module refs:   CreatJoinRequest
           ENTRY                   ADDRESS         REF BY
           =====                   =======         ======
           JoinRequestPacket       11AE 
    -------------------------------------------------------------------------
DATA16_Z
  Relative segment, address: 1319 - 1319 (0x1 bytes), align: 0
  Segment part 12.            Intra module refs:   ReJoinHandler
           ENTRY                   ADDRESS         REF BY
           =====                   =======         ======
           ReJoinFlag              1319            DataSend (tdma)
                                                   Err_State (A7139)
                                                   PostTask (ProcessEvent)
                                                   SendByCSMA (mac)
                                                   Timer_A0 (interrupt)
                                                   main (main)
    -------------------------------------------------------------------------
DATA16_Z
  Relative segment, address: 131A - 1325 (0xc bytes), align: 0
  Segment part 13.            Intra module refs:   Scan_Channel
           ENTRY                   ADDRESS         REF BY
           =====                   =======         ======
           scandata                131A 
    -------------------------------------------------------------------------
DATA16_Z
  Relative segment, address: 1326 - 1326 (0x1 bytes), align: 0
  Segment part 14.            Intra module refs:   ChannelSelection
           ENTRY                   ADDRESS         REF BY
           =====                   =======         ======
           RejoinChannel           1326            main (main)
    -------------------------------------------------------------------------
<CODE> 1 (was CODE)
  Relative segment, address: 9468 - 9563 (0xfc bytes), align: 1
  Segment part 24.            Intra module refs:   ChannelSelection
                                                   ChannelSelectionOnce
           ENTRY                   ADDRESS         REF BY
           =====                   =======         ======
           Scan_Channel            9468 
               calls direct
    -------------------------------------------------------------------------
<CODE> 1 (was CODE)
  Relative segment, address: 9BD6 - 9C87 (0xb2 bytes), align: 1
  Segment part 23.            Intra module refs:   ChannelSelectionOnce
                                                   SortChannel
           ENTRY                   ADDRESS         REF BY
           =====                   =======         ======
           bubble                  9BD6 
               calls direct
    -------------------------------------------------------------------------
<CODE> 1 (was CODE)
  Relative segment, address: 999C - 9A5D (0xc2 bytes), align: 1
  Segment part 22.            Intra module refs:   ChannelSelection
           ENTRY                   ADDRESS         REF BY
           =====                   =======         ======
           SortChannel             999C 
               calls direct
    -------------------------------------------------------------------------
<CODE> 1 (was CODE)
  Relative segment, address: A472 - A4FB (0x8a bytes), align: 1
  Segment part 21.            Intra module refs:   SendJoinRequest
           ENTRY                   ADDRESS         REF BY
           =====                   =======         ======
           CreatJoinRequest        A472 
               calls direct
    -------------------------------------------------------------------------
<CODE> 1 (was CODE)
  Relative segment, address: B9B2 - B9C1 (0x10 bytes), align: 1
  Segment part 20.
           ENTRY                   ADDRESS         REF BY
           =====                   =======         ======
           SendJoinRequest         B9B2            Process_Event (ProcessEvent)
               calls direct
    -------------------------------------------------------------------------
<CODE> 1 (was CODE)
  Relative segment, address: B51A - B549 (0x30 bytes), align: 1
  Segment part 18.
           ENTRY                   ADDRESS         REF BY
           =====                   =======         ======
           JoinRequestACKHandler   B51A            Process_Event (ProcessEvent)
               calls direct
    -------------------------------------------------------------------------
<CODE> 1 (was CODE)
  Relative segment, address: AE18 - AE75 (0x5e bytes), align: 1
  Segment part 17.
           ENTRY                   ADDRESS         REF BY
           =====                   =======         ======
           ChannelSelection        AE18            main (main)
               calls direct
    -------------------------------------------------------------------------
<CODE> 1 (was CODE)
  Relative segment, address: AB74 - ABD7 (0x64 bytes), align: 1
  Segment part 16.
           ENTRY                   ADDRESS         REF BY
           =====                   =======         ======
           ChannelSelectionOnce    AB74            main (main)
               calls direct
    -------------------------------------------------------------------------
<CODE> 1 (was CODE)
  Relative segment, address: 98DA - 999B (0xc2 bytes), align: 1
  Segment part 15.
           ENTRY                   ADDRESS         REF BY
           =====                   =======         ======
           ReJoinHandler           98DA            Process_Event (ProcessEvent)
                                                   main (main)
               calls direct

    *************************************************************************

  FILE NAME : F:\Graduate\Git_program\MSP430F247-v6.2.0\Net\Debug\Obj\led.r43
  PROGRAM MODULE, NAME : led

  SEGMENTS IN THE MODULE
  ======================
<CODE> 1 (was CODE)
  Relative segment, address: BA68 - BA6F (0x8 bytes), align: 1
  Segment part 9.
           ENTRY                   ADDRESS         REF BY
           =====                   =======         ======
           halLedSet               BA68            DataSend (tdma)
                                                   IdentifyCar (detect)
                                                   Init_PNI (PNI)
                                                   KeepAliveSend (tdma)
                                                   Timer_A0 (interrupt)
                                                   port1_ISR (interrupt)
    -------------------------------------------------------------------------
<CODE> 1 (was CODE)
  Relative segment, address: BA98 - BA99 (0x2 bytes), align: 1
  Segment part 8.
           ENTRY                   ADDRESS         REF BY
           =====                   =======         ======
           halLedSetAll            BA98            AD_cal (adc)
                                                   main (main)
    -------------------------------------------------------------------------
<CODE> 1 (was CODE)
  Relative segment, address: BA9A - BA9B (0x2 bytes), align: 1
  Segment part 7.
           ENTRY                   ADDRESS         REF BY
           =====                   =======         ======
           halLedClear             BA9A            CmdCalibration (detect)
                                                   DataSend (tdma)
                                                   IdentifyCar (detect)
                                                   Init_PNI (PNI)
                                                   Process_Event (ProcessEvent)
                                                   SendPack (A7139)
    -------------------------------------------------------------------------
<CODE> 1 (was CODE)
  Relative segment, address: BAA0 - BAA1 (0x2 bytes), align: 1
  Segment part 6.
           ENTRY                   ADDRESS         REF BY
           =====                   =======         ======
           halLedClearAll          BAA0            AD_cal (adc)
                                                   Err_State (A7139)
                                                   JoinRequestACKHandler (join)
    -------------------------------------------------------------------------
<CODE> 1 (was CODE)
  Relative segment, address: BAA6 - BAA7 (0x2 bytes), align: 1
  Segment part 5.
           ENTRY                   ADDRESS         REF BY
           =====                   =======         ======
           halLedToggle            BAA6            CmdHandler (detect)
    -------------------------------------------------------------------------
<CODE> 1 (was CODE)
  Relative segment, address: BAA8 - BAA9 (0x2 bytes), align: 1
  Segment part 4.
           ENTRY                   ADDRESS         REF BY
           =====                   =======         ======
           halLedToggleAll         BAA8            Err_State (A7139)
    -------------------------------------------------------------------------
<CODE> 1 (was CODE)
  Relative segment, address: BA9E - BA9F (0x2 bytes), align: 1
  Segment part 3.
           ENTRY                   ADDRESS         REF BY
           =====                   =======         ======
           halLedFlow              BA9E            main (main)

    *************************************************************************

  FILE NAME : F:\Graduate\Git_program\MSP430F247-v6.2.0\Net\Debug\Obj\mac.r43
  PROGRAM MODULE, NAME : mac

  SEGMENTS IN THE MODULE
  ======================
DATA16_AN
  Relative segment, address: 0170 - 0171 (0x2 bytes), align: 0
  Segment part 1. ROOT        Intra module refs:   CSMABackOff
           ENTRY                   ADDRESS         REF BY
           =====                   =======         ======
           TAR                     0170 
    -------------------------------------------------------------------------
DATA16_Z
  Relative segment, address: 11B6 - 11CD (0x18 bytes), align: 1
  Segment part 4.             Intra module refs:   BeaconHandler
                                                   CSMABackOff
                                                   PackValid
                                                   SendByCSMA
           ENTRY                   ADDRESS         REF BY
           =====                   =======         ======
           EndPointDevice          11B6            A7139_Deep_Wake (A7139)
                                                   ChannelSelection (join)
                                                   ChannelSelectionOnce (join)
                                                   CmdCalibration (detect)
                                                   CmdHandler (detect)
                                                   CmdSendHandler (detect)
                                                   CreatJoinRequest (join)
                                                   CreatSendData (tdma)
                                                   DataACKHandler (tdma)
                                                   DataSend (tdma)
                                                   IdentifyCar (detect)
                                                   JoinRequestACKHandler (join)
                                                   RXMode (A7139)
                                                   ReJoinHandler (join)
                                                   RecvDataACK (tdma)
                                                   SendPack (A7139)
                                                   SortChannel (join)
                                                   TestSend (interrupt)
                                                   Timer_A0 (interrupt)
                                                   TotalJudge (detect)
                                                   main (main)
                                                   parkingStableSet (detect)
                                                   port1_ISR (interrupt)
                                                   vsEnvironment (detect)
    -------------------------------------------------------------------------
DATA16_Z
  Relative segment, address: 1327 - 1332 (0xc bytes), align: 0
  Segment part 5.
           ENTRY                   ADDRESS         REF BY
           =====                   =======         ======
           DataRecvBuffer          1327            port1_ISR (interrupt)
    -------------------------------------------------------------------------
DATA16_Z
  Relative segment, address: 1333 - 133E (0xc bytes), align: 0
  Segment part 6.
           ENTRY                   ADDRESS         REF BY
           =====                   =======         ======
           DataSendBuffer          1333            CSMADataResend (tdma)
                                                   CreatJoinRequest (join)
                                                   CreatSendData (tdma)
                                                   SendJoinRequest (join)
                                                   SendPack (A7139)
    -------------------------------------------------------------------------
DATA16_Z
  Relative segment, address: 11CE - 11CF (0x2 bytes), align: 1
  Segment part 7.             Intra module refs:   CSMABackOff
           ENTRY                   ADDRESS         REF BY
           =====                   =======         ======
           CSMA_BackOff_Random     11CE 
    -------------------------------------------------------------------------
DATA16_Z
  Relative segment, address: 133F - 133F (0x1 bytes), align: 0
  Segment part 8.             Intra module refs:   SendByCSMA
           ENTRY                   ADDRESS         REF BY
           =====                   =======         ======
           CSMA_BackOff_Count      133F 
    -------------------------------------------------------------------------
<CODE> 1 (was CODE)
  Relative segment, address: B8E8 - B901 (0x1a bytes), align: 1
  Segment part 22.            Intra module refs:   PackValid
           ENTRY                   ADDRESS         REF BY
           =====                   =======         ======
           GetCheck                B8E8            CreatJoinRequest (join)
                                                   CreatSendData (tdma)
                                                   Scan_Channel (join)
    -------------------------------------------------------------------------
<CODE> 1 (was CODE)
  Relative segment, address: B9FC - BA07 (0xc bytes), align: 1
  Segment part 21.            Intra module refs:   BeaconHandler
           ENTRY                   ADDRESS         REF BY
           =====                   =======         ======
           Unpack                  B9FC            DataACKHandler (tdma)
                                                   JoinRequestACKHandler (join)
                                                   RecvDataACK (tdma)
                                                   Scan_Channel (join)
                                                   port1_ISR (interrupt)
    -------------------------------------------------------------------------
<CODE> 1 (was CODE)
  Relative segment, address: AAA6 - AB0D (0x68 bytes), align: 1
  Segment part 20.            Intra module refs:   SendByCSMA
           ENTRY                   ADDRESS         REF BY
           =====                   =======         ======
           CSMABackOff             AAA6 
               calls direct
    -------------------------------------------------------------------------
DATA16_Z
  Relative segment, address: 1340 - 1340 (0x1 bytes), align: 0
  Segment part 12.            Intra module refs:   SendByCSMA
           ENTRY                   ADDRESS         REF BY
           =====                   =======         ======
           cca_value               1340 
    -------------------------------------------------------------------------
DATA16_Z
  Relative segment, address: 11D0 - 11D3 (0x4 bytes), align: 1
  Segment part 13.            Intra module refs:   SendByCSMA
           ENTRY                   ADDRESS         REF BY
           =====                   =======         ======
           wait_time               11D0 
    -------------------------------------------------------------------------
DATA16_Z
  Relative segment, address: 11D4 - 11D7 (0x4 bytes), align: 1
  Segment part 14.            Intra module refs:   SendByCSMA
           ENTRY                   ADDRESS         REF BY
           =====                   =======         ======
           q                       11D4 
    -------------------------------------------------------------------------
DATA16_Z
  Relative segment, address: 11D8 - 11DB (0x4 bytes), align: 1
  Segment part 15.            Intra module refs:   SendByCSMA
           ENTRY                   ADDRESS         REF BY
           =====                   =======         ======
           w                       11D8 
    -------------------------------------------------------------------------
<CODE> 1 (was CODE)
  Relative segment, address: 913E - 924F (0x112 bytes), align: 1
  Segment part 19.
           ENTRY                   ADDRESS         REF BY
           =====                   =======         ======
           SendByCSMA              913E            CSMADataResend (tdma)
                                                   SendJoinRequest (join)
               calls direct
    -------------------------------------------------------------------------
<CODE> 1 (was CODE)
  Relative segment, address: AED4 - AF2F (0x5c bytes), align: 1
  Segment part 18.
           ENTRY                   ADDRESS         REF BY
           =====                   =======         ======
           BeaconHandler           AED4            Process_Event (ProcessEvent)
               calls direct
    -------------------------------------------------------------------------
<CODE> 1 (was CODE)
  Relative segment, address: A962 - A9CF (0x6e bytes), align: 1
  Segment part 17.
           ENTRY                   ADDRESS         REF BY
           =====                   =======         ======
           PackValid               A962            RecvDataACK (tdma)
                                                   port1_ISR (interrupt)
               calls direct

    *************************************************************************

  FILE NAME : F:\Graduate\Git_program\MSP430F247-v6.2.0\Net\Debug\Obj\main.r43
  PROGRAM MODULE, NAME : main

  SEGMENTS IN THE MODULE
  ======================
<CODE> 1 (was CODE)
  Relative segment, address: A808 - A87B (0x74 bytes), align: 1
  Segment part 5.
           ENTRY                   ADDRESS         REF BY
           =====                   =======         ======
           main                    A808            Segment part 18 (?cstart)
               calls direct

    *************************************************************************

  FILE NAME : F:\Graduate\Git_program\MSP430F247-v6.2.0\Net\Debug\Obj\math.r43
  PROGRAM MODULE, NAME : math

  SEGMENTS IN THE MODULE
  ======================
<CODE> 1 (was CODE)
  Relative segment, address: A10A - A1A1 (0x98 bytes), align: 1
  Segment part 7.
           ENTRY                   ADDRESS         REF BY
           =====                   =======         ======
           sqrt_16                 A10A            AD_cal (adc)
                                                   calibrateOnce (detect)
                                                   getEuclideanMetric (criteria)
                                                   getPerimeter (criteria)
                                                   quickCalibrate (detect)
               calls direct
    -------------------------------------------------------------------------
<CODE> 1 (was CODE)
  Relative segment, address: B57A - B5A9 (0x30 bytes), align: 1
  Segment part 6.             Intra module refs:   getVariance
           ENTRY                   ADDRESS         REF BY
           =====                   =======         ======
           getAverage              B57A 
               calls direct
    -------------------------------------------------------------------------
<CODE> 1 (was CODE)
  Relative segment, address: ABD8 - AC39 (0x62 bytes), align: 1
  Segment part 5.
           ENTRY                   ADDRESS         REF BY
           =====                   =======         ======
           getVariance             ABD8            quickCalibrate (detect)
               calls direct
    -------------------------------------------------------------------------
<CODE> 1 (was CODE)
  Relative segment, address: B296 - B2DB (0x46 bytes), align: 1
  Segment part 2.
           ENTRY                   ADDRESS         REF BY
           =====                   =======         ======
           pow                     B296            getCompatness (criteria)
                                                   getEuclideanMetric (criteria)
                                                   getPerimeter (criteria)
               calls direct

    *************************************************************************

  FILE NAME : F:\Graduate\Git_program\MSP430F247-v6.2.0\Net\Debug\Obj\mcu.r43
  PROGRAM MODULE, NAME : mcu

  SEGMENTS IN THE MODULE
  ======================
DATA16_AN
  Relative segment, address: 0056 - 0056 (0x1 bytes), align: 0
  Segment part 1. ROOT        Intra module refs:   halMcuInit
           ENTRY                   ADDRESS         REF BY
           =====                   =======         ======
           DCOCTL                  0056 
    -------------------------------------------------------------------------
DATA16_AN
  Relative segment, address: 0057 - 0057 (0x1 bytes), align: 0
  Segment part 2. ROOT        Intra module refs:   halMcuInit
           ENTRY                   ADDRESS         REF BY
           =====                   =======         ======
           BCSCTL1                 0057 
    -------------------------------------------------------------------------
DATA16_AN
  Relative segment, address: 10F8 - 10F8 (0x1 bytes), align: 0
  Segment part 4. ROOT        Intra module refs:   halMcuInit
           ENTRY                   ADDRESS         REF BY
           =====                   =======         ======
           CALDCO_16MHZ            10F8 
    -------------------------------------------------------------------------
DATA16_AN
  Relative segment, address: 10F9 - 10F9 (0x1 bytes), align: 0
  Segment part 5. ROOT        Intra module refs:   halMcuInit
           ENTRY                   ADDRESS         REF BY
           =====                   =======         ======
           CALBC1_16MHZ            10F9 
    -------------------------------------------------------------------------
<CODE> 1 (was CODE)
  Relative segment, address: B84E - B86F (0x22 bytes), align: 1
  Segment part 9.
           ENTRY                   ADDRESS         REF BY
           =====                   =======         ======
           halMcuInit              B84E            halBoardInit (board)

    *************************************************************************

  FILE NAME : F:\Graduate\Git_program\MSP430F247-v6.2.0\Net\Debug\Obj\PNI.r43
  PROGRAM MODULE, NAME : PNI

  SEGMENTS IN THE MODULE
  ======================
DATA16_Z
  Relative segment, address: 1341 - 1341 (0x1 bytes), align: 0
  Segment part 7.             Intra module refs:   PNI_read_data
                                                   getOffset
           ENTRY                   ADDRESS         REF BY
           =====                   =======         ======
           err                     1341 
    -------------------------------------------------------------------------
DATA16_Z
  Relative segment, address: 1342 - 1347 (0x6 bytes), align: 0
  Segment part 8.             Intra module refs:   Init_PNI
                                                   PNI_read_circle
           ENTRY                   ADDRESS         REF BY
           =====                   =======         ======
           circle_cfg              1342 
    -------------------------------------------------------------------------
DATA16_Z
  Relative segment, address: 1348 - 1348 (0x1 bytes), align: 0
  Segment part 9.             Intra module refs:   PNI_read_data
                                                   getOffset
           ENTRY                   ADDRESS         REF BY
           =====                   =======         ======
           time                    1348 
    -------------------------------------------------------------------------
DATA16_Z
  Relative segment, address: 11DC - 11DF (0x4 bytes), align: 1
  Segment part 10.            Intra module refs:   PNI_read_data
                                                   getOffset
           ENTRY                   ADDRESS         REF BY
           =====                   =======         ======
           xoffset                 11DC 
    -------------------------------------------------------------------------
DATA16_Z
  Relative segment, address: 11E0 - 11E3 (0x4 bytes), align: 1
  Segment part 11.            Intra module refs:   PNI_read_data
                                                   getOffset
           ENTRY                   ADDRESS         REF BY
           =====                   =======         ======
           yoffset                 11E0 
    -------------------------------------------------------------------------
DATA16_Z
  Relative segment, address: 11E4 - 11E7 (0x4 bytes), align: 1
  Segment part 12.            Intra module refs:   PNI_read_data
                                                   getOffset
           ENTRY                   ADDRESS         REF BY
           =====                   =======         ======
           zoffset                 11E4 
    -------------------------------------------------------------------------
DATA16_C
  Relative segment, address: 80B6 - 80BA (0x5 bytes), align: 0
  Segment part 13.            Intra module refs:   PNI_GPIO_Init
           ENTRY                   ADDRESS         REF BY
           =====                   =======         ======
           pni_mosi_out            80B6 
    -------------------------------------------------------------------------
DATA16_C
  Relative segment, address: 80BB - 80BF (0x5 bytes), align: 0
  Segment part 14.            Intra module refs:   PNI_GPIO_Init
           ENTRY                   ADDRESS         REF BY
           =====                   =======         ======
           pni_miso_in             80BB 
    -------------------------------------------------------------------------
DATA16_C
  Relative segment, address: 80C0 - 80C4 (0x5 bytes), align: 0
  Segment part 15.            Intra module refs:   PNI_GPIO_Init
           ENTRY                   ADDRESS         REF BY
           =====                   =======         ======
           pni_sck_out             80C0 
    -------------------------------------------------------------------------
DATA16_C
  Relative segment, address: 80C5 - 80C9 (0x5 bytes), align: 0
  Segment part 16.            Intra module refs:   PNI_GPIO_Init
           ENTRY                   ADDRESS         REF BY
           =====                   =======         ======
           pni_scs_out             80C5 
    -------------------------------------------------------------------------
DATA16_C
  Relative segment, address: 80CA - 80CE (0x5 bytes), align: 0
  Segment part 17.            Intra module refs:   PNI_GPIO_Init
           ENTRY                   ADDRESS         REF BY
           =====                   =======         ======
           pni_drdy_in             80CA 
    -------------------------------------------------------------------------
<CODE> 1 (was CODE)
  Relative segment, address: B176 - B1BF (0x4a bytes), align: 1
  Segment part 27.            Intra module refs:   Init_PNI
           ENTRY                   ADDRESS         REF BY
           =====                   =======         ======
           PNI_GPIO_Init           B176 
               calls direct
    -------------------------------------------------------------------------
<CODE> 1 (was CODE)
  Relative segment, address: 972E - 9805 (0xd8 bytes), align: 1
  Segment part 26.
           ENTRY                   ADDRESS         REF BY
           =====                   =======         ======
           Init_PNI                972E            halBoardInit (board)
               calls direct
    -------------------------------------------------------------------------
<CODE> 1 (was CODE)
  Relative segment, address: AC9C - ACFD (0x62 bytes), align: 1
  Segment part 25.            Intra module refs:   Init_PNI
           ENTRY                   ADDRESS         REF BY
           =====                   =======         ======
           PNI_read_circle         AC9C 
               calls direct
    -------------------------------------------------------------------------
<CODE> 1 (was CODE)
  Relative segment, address: A87C - A8EF (0x74 bytes), align: 1
  Segment part 24.            Intra module refs:   Init_PNI
           ENTRY                   ADDRESS         REF BY
           =====                   =======         ======
           PNI_write_circle        A87C 
               calls direct
    -------------------------------------------------------------------------
<CODE> 1 (was CODE)
  Relative segment, address: 8C3A - 8D99 (0x160 bytes), align: 1
  Segment part 23.
           ENTRY                   ADDRESS         REF BY
           =====                   =======         ======
           getOffset               8C3A            AD_cal (adc)
                                                   halBoardInit (board)
               calls direct
    -------------------------------------------------------------------------
<CODE> 1 (was CODE)
  Relative segment, address: 87AA - 8941 (0x198 bytes), align: 1
  Segment part 22.
           ENTRY                   ADDRESS         REF BY
           =====                   =======         ======
           PNI_read_data           87AA            AD_cal (adc)
                                                   IdentifyCar (detect)
                                                   quickCalibrate (detect)
                                                   vsEnvironment (detect)
               calls direct
    -------------------------------------------------------------------------
<CODE> 1 (was CODE)
  Relative segment, address: B95A - B96B (0x12 bytes), align: 1
  Segment part 21.            Intra module refs:   PNI_read_data
                                                   getOffset
           ENTRY                   ADDRESS         REF BY
           =====                   =======         ======
           DataReady               B95A 
    -------------------------------------------------------------------------
<CODE> 1 (was CODE)
  Relative segment, address: AD5C - ADB9 (0x5e bytes), align: 1
  Segment part 20.            Intra module refs:   PNI_read_circle
                                                   PNI_read_data
                                                   PNI_write_TMRC
                                                   PNI_write_circle
                                                   getOffset
           ENTRY                   ADDRESS         REF BY
           =====                   =======         ======
           SPI_read_write          AD5C 
               calls direct
    -------------------------------------------------------------------------
<CODE> 1 (was CODE)
  Relative segment, address: B12C - B175 (0x4a bytes), align: 1
  Segment part 18.            Intra module refs:   Init_PNI
           ENTRY                   ADDRESS         REF BY
           =====                   =======         ======
           PNI_write_TMRC          B12C 
               calls direct

    *************************************************************************

  FILE NAME : F:\Graduate\Git_program\MSP430F247-v6.2.0\Net\Debug\Obj\ProcessEvent.r43
  PROGRAM MODULE, NAME : ProcessEvent

  SEGMENTS IN THE MODULE
  ======================
DATA16_Z
  Relative segment, address: 1349 - 1418 (0xd0 bytes), align: 0
  Segment part 2.             Intra module refs:   Init_TQ
                                                   Pop_T
                                                   PostTask
                                                   isEmpty
           ENTRY                   ADDRESS         REF BY
           =====                   =======         ======
           TQ                      1349 
    -------------------------------------------------------------------------
DATA16_Z
  Relative segment, address: 11E8 - 11E9 (0x2 bytes), align: 1
  Segment part 3.             Intra module refs:   Init_TQ
                                                   Pop_T
           ENTRY                   ADDRESS         REF BY
           =====                   =======         ======
           current_tsk             11E8 
    -------------------------------------------------------------------------
DATA16_Z
  Relative segment, address: 11EA - 11EB (0x2 bytes), align: 1
  Segment part 4.             Intra module refs:   Init_TQ
                                                   PostTask
           ENTRY                   ADDRESS         REF BY
           =====                   =======         ======
           last_tsk                11EA 
    -------------------------------------------------------------------------
DATA16_Z
  Relative segment, address: 1419 - 1425 (0xd bytes), align: 0
  Segment part 5.             Intra module refs:   Init_TQ
                                                   Pop_T
           ENTRY                   ADDRESS         REF BY
           =====                   =======         ======
           emptytask               1419 
    -------------------------------------------------------------------------
<CODE> 1 (was CODE)
  Relative segment, address: B35C - B397 (0x3c bytes), align: 1
  Segment part 10.            Intra module refs:   PostTask
           ENTRY                   ADDRESS         REF BY
           =====                   =======         ======
           Init_TQ                 B35C            DataSend (tdma)
                                                   ReJoinHandler (join)
                                                   SendByCSMA (mac)
                                                   Timer_A0 (interrupt)
                                                   halBoardInit (board)
    -------------------------------------------------------------------------
<CODE> 1 (was CODE)
  Relative segment, address: A78C - A807 (0x7c bytes), align: 1
  Segment part 9.
           ENTRY                   ADDRESS         REF BY
           =====                   =======         ======
           PostTask                A78C            BeaconHandler (mac)
                                                   DataACKHandler (tdma)
                                                   DataSend (tdma)
                                                   Timer_A0 (interrupt)
                                                   port1_ISR (interrupt)
               calls direct
    -------------------------------------------------------------------------
<CODE> 1 (was CODE)
  Relative segment, address: B4B4 - B4E7 (0x34 bytes), align: 1
  Segment part 8.
           ENTRY                   ADDRESS         REF BY
           =====                   =======         ======
           isEmpty                 B4B4            Timer_A0 (interrupt)
    -------------------------------------------------------------------------
<CODE> 1 (was CODE)
  Relative segment, address: A4FC - A583 (0x88 bytes), align: 1
  Segment part 7.             Intra module refs:   Process_Event
           ENTRY                   ADDRESS         REF BY
           =====                   =======         ======
           Pop_T                   A4FC 
               calls direct
    -------------------------------------------------------------------------
<CODE> 1 (was CODE)
  Relative segment, address: 9A5E - 9B1B (0xbe bytes), align: 1
  Segment part 6.
           ENTRY                   ADDRESS         REF BY
           =====                   =======         ======
           Process_Event           9A5E            main (main)
               calls direct

    *************************************************************************

  FILE NAME : F:\Graduate\Git_program\MSP430F247-v6.2.0\Net\Debug\Obj\spi.r43
  PROGRAM MODULE, NAME : spi

  SEGMENTS IN THE MODULE
  ======================
DATA16_C
  Relative segment, address: 80CF - 80D3 (0x5 bytes), align: 0
  Segment part 5.             Intra module refs:   SPI3_Init
           ENTRY                   ADDRESS         REF BY
           =====                   =======         ======
           mosi_in                 80CF 
    -------------------------------------------------------------------------
DATA16_C
  Relative segment, address: 80D4 - 80D8 (0x5 bytes), align: 0
  Segment part 6.             Intra module refs:   SPI3_Init
           ENTRY                   ADDRESS         REF BY
           =====                   =======         ======
           mosi_out                80D4 
    -------------------------------------------------------------------------
DATA16_C
  Relative segment, address: 80D9 - 80DD (0x5 bytes), align: 0
  Segment part 8.             Intra module refs:   SPI3_Init
           ENTRY                   ADDRESS         REF BY
           =====                   =======         ======
           sck                     80D9 
    -------------------------------------------------------------------------
DATA16_C
  Relative segment, address: 80DE - 80E2 (0x5 bytes), align: 0
  Segment part 9.             Intra module refs:   SPI3_Init
           ENTRY                   ADDRESS         REF BY
           =====                   =======         ======
           scs                     80DE 
    -------------------------------------------------------------------------
<CODE> 1 (was CODE)
  Relative segment, address: BA7E - BA83 (0x6 bytes), align: 1
  Segment part 16.            Intra module refs:   SPIx_ReadByte
                                                   SPIx_ReadWord
           ENTRY                   ADDRESS         REF BY
           =====                   =======         ======
           MOSI_IN                 BA7E 
    -------------------------------------------------------------------------
<CODE> 1 (was CODE)
  Relative segment, address: BA78 - BA7D (0x6 bytes), align: 1
  Segment part 15.            Intra module refs:   SPIx_ReadByte
                                                   SPIx_ReadWord
           ENTRY                   ADDRESS         REF BY
           =====                   =======         ======
           MOSI_OUT                BA78 
    -------------------------------------------------------------------------
<CODE> 1 (was CODE)
  Relative segment, address: B68A - B6B3 (0x2a bytes), align: 1
  Segment part 14.
           ENTRY                   ADDRESS         REF BY
           =====                   =======         ======
           SPI3_Init               B68A            halBoardInit (board)
               calls direct
    -------------------------------------------------------------------------
<CODE> 1 (was CODE)
  Relative segment, address: B3D2 - B40B (0x3a bytes), align: 1
  Segment part 13.
           ENTRY                   ADDRESS         REF BY
           =====                   =======         ======
           SPIx_WriteByte          B3D2            A7139_ReadFIFO (A7139)
                                                   A7139_ReadReg (A7139)
                                                   A7139_SetCID (A7139)
                                                   A7139_StrobeCmd (A7139)
                                                   A7139_WriteFIFO (A7139)
                                                   A7139_WriteReg (A7139)
               calls direct
    -------------------------------------------------------------------------
<CODE> 1 (was CODE)
  Relative segment, address: B31C - B35B (0x40 bytes), align: 1
  Segment part 12.
           ENTRY                   ADDRESS         REF BY
           =====                   =======         ======
           SPIx_WriteWord          B31C            A7139_WriteReg (A7139)
               calls direct
    -------------------------------------------------------------------------
<CODE> 1 (was CODE)
  Relative segment, address: B090 - B0DF (0x50 bytes), align: 1
  Segment part 11.
           ENTRY                   ADDRESS         REF BY
           =====                   =======         ======
           SPIx_ReadWord           B090            A7139_ReadReg (A7139)
               calls direct
    -------------------------------------------------------------------------
<CODE> 1 (was CODE)
  Relative segment, address: B1C0 - B209 (0x4a bytes), align: 1
  Segment part 10.
           ENTRY                   ADDRESS         REF BY
           =====                   =======         ======
           SPIx_ReadByte           B1C0            A7139_ReadFIFO (A7139)
               calls direct

    *************************************************************************

  FILE NAME : F:\Graduate\Git_program\MSP430F247-v6.2.0\Net\Debug\Obj\sys.r43
    *************************************************************************

  FILE NAME : F:\Graduate\Git_program\MSP430F247-v6.2.0\Net\Debug\Obj\tdma.r43
  PROGRAM MODULE, NAME : tdma

  SEGMENTS IN THE MODULE
  ======================
DATA16_Z
  Relative segment, address: 11EC - 11F7 (0xc bytes), align: 1
  Segment part 5.             Intra module refs:   CreatSendData
                                                   DataACKHandler
           ENTRY                   ADDRESS         REF BY
           =====                   =======         ======
           DataPacket              11EC            ReJoinHandler (join)
    -------------------------------------------------------------------------
DATA16_Z
  Relative segment, address: 11F8 - 11FB (0x4 bytes), align: 1
  Segment part 7.             Intra module refs:   RecvDataACK
           ENTRY                   ADDRESS         REF BY
           =====                   =======         ======
           send_time               11F8 
    -------------------------------------------------------------------------
DATA16_Z
  Relative segment, address: 11FC - 11FF (0x4 bytes), align: 1
  Segment part 8.             Intra module refs:   RecvDataACK
           ENTRY                   ADDRESS         REF BY
           =====                   =======         ======
           resend_count            11FC 
    -------------------------------------------------------------------------
DATA16_Z
  Relative segment, address: 1200 - 1201 (0x2 bytes), align: 1
  Segment part 9.             Intra module refs:   DataSend
           ENTRY                   ADDRESS         REF BY
           =====                   =======         ======
           DataAck_Lost            1200 
    -------------------------------------------------------------------------
DATA16_Z
  Relative segment, address: 1426 - 1426 (0x1 bytes), align: 0
  Segment part 10.            Intra module refs:   DataSend
                                                   KeepAliveSend
           ENTRY                   ADDRESS         REF BY
           =====                   =======         ======
           Int_Enable_Flag         1426            IdentifyCar (detect)
                                                   ReJoinHandler (join)
                                                   Timer_A0 (interrupt)
    -------------------------------------------------------------------------
DATA16_Z
  Relative segment, address: 1202 - 1203 (0x2 bytes), align: 1
  Segment part 11.
           ENTRY                   ADDRESS         REF BY
           =====                   =======         ======
           BeaconComing_Count      1202            port1_ISR (interrupt)
    -------------------------------------------------------------------------
DATA16_Z
  Relative segment, address: 1427 - 1427 (0x1 bytes), align: 0
  Segment part 12.            Intra module refs:   KeepAliveSend
           ENTRY                   ADDRESS         REF BY
           =====                   =======         ======
           Data_Send_Waiting_Flag
                                   1427            IdentifyCar (detect)
    -------------------------------------------------------------------------
DATA16_Z
  Relative segment, address: 1428 - 1428 (0x1 bytes), align: 0
  Segment part 14.            Intra module refs:   RecvDataACK
           ENTRY                   ADDRESS         REF BY
           =====                   =======         ======
           watch1                  1428 
    -------------------------------------------------------------------------
DATA16_Z
  Relative segment, address: 1429 - 1429 (0x1 bytes), align: 0
  Segment part 15.            Intra module refs:   RecvDataACK
           ENTRY                   ADDRESS         REF BY
           =====                   =======         ======
           watch2                  1429 
    -------------------------------------------------------------------------
DATA16_Z
  Relative segment, address: 142A - 1435 (0xc bytes), align: 0
  Segment part 16.            Intra module refs:   RecvDataACK
           ENTRY                   ADDRESS         REF BY
           =====                   =======         ======
           ack_buf                 142A 
    -------------------------------------------------------------------------
<CODE> 1 (was CODE)
  Relative segment, address: 9DE4 - 9E8B (0xa8 bytes), align: 1
  Segment part 24.            Intra module refs:   DataSend
           ENTRY                   ADDRESS         REF BY
           =====                   =======         ======
           RecvDataACK             9DE4 
               calls direct
    -------------------------------------------------------------------------
<CODE> 1 (was CODE)
  Relative segment, address: 9C88 - 9D37 (0xb0 bytes), align: 1
  Segment part 23.            Intra module refs:   DataSend
           ENTRY                   ADDRESS         REF BY
           =====                   =======         ======
           CreatSendData           9C88 
               calls direct
    -------------------------------------------------------------------------
DATA16_Z
  Relative segment, address: 1436 - 1436 (0x1 bytes), align: 0
  Segment part 17.            Intra module refs:   DataSend
           ENTRY                   ADDRESS         REF BY
           =====                   =======         ======
           ack_flag                1436 
    -------------------------------------------------------------------------
<CODE> 1 (was CODE)
  Relative segment, address: 8D9A - 8ED7 (0x13e bytes), align: 1
  Segment part 22.
           ENTRY                   ADDRESS         REF BY
           =====                   =======         ======
           DataSend                8D9A            Process_Event (ProcessEvent)
               calls direct
    -------------------------------------------------------------------------
DATA16_Z
  Relative segment, address: 1437 - 1437 (0x1 bytes), align: 0
  Segment part 18.            Intra module refs:   DataACKHandler
           ENTRY                   ADDRESS         REF BY
           =====                   =======         ======
           rejoin_flag             1437 
    -------------------------------------------------------------------------
<CODE> 1 (was CODE)
  Relative segment, address: AF30 - AF8B (0x5c bytes), align: 1
  Segment part 21.            Intra module refs:   RecvDataACK
           ENTRY                   ADDRESS         REF BY
           =====                   =======         ======
           DataACKHandler          AF30            Process_Event (ProcessEvent)
               calls direct
    -------------------------------------------------------------------------
<CODE> 1 (was CODE)
  Relative segment, address: BA20 - BA2B (0xc bytes), align: 1
  Segment part 20.
           ENTRY                   ADDRESS         REF BY
           =====                   =======         ======
           CSMADataResend          BA20            Process_Event (ProcessEvent)
               calls direct
    -------------------------------------------------------------------------
<CODE> 1 (was CODE)
  Relative segment, address: B8B0 - B8CB (0x1c bytes), align: 1
  Segment part 19.
           ENTRY                   ADDRESS         REF BY
           =====                   =======         ======
           KeepAliveSend           B8B0            Process_Event (ProcessEvent)
               calls direct

    *************************************************************************

  FILE NAME : F:\Graduate\Git_program\MSP430F247-v6.2.0\Net\Debug\Obj\timer.r43
  PROGRAM MODULE, NAME : timer

  SEGMENTS IN THE MODULE
  ======================
DATA16_AN
  Relative segment, address: 0160 - 0161 (0x2 bytes), align: 0
  Segment part 1. ROOT        Intra module refs:   time_init
           ENTRY                   ADDRESS         REF BY
           =====                   =======         ======
           TACTL                   0160 
    -------------------------------------------------------------------------
DATA16_AN
  Relative segment, address: 0172 - 0173 (0x2 bytes), align: 0
  Segment part 4. ROOT        Intra module refs:   time_init
           ENTRY                   ADDRESS         REF BY
           =====                   =======         ======
           TACCR0                  0172 
    -------------------------------------------------------------------------
DATA16_AN
  Relative segment, address: 0180 - 0181 (0x2 bytes), align: 0
  Segment part 5. ROOT        Intra module refs:   time_init
           ENTRY                   ADDRESS         REF BY
           =====                   =======         ======
           TBCTL                   0180 
    -------------------------------------------------------------------------
DATA16_AN
  Relative segment, address: 0192 - 0193 (0x2 bytes), align: 0
  Segment part 7. ROOT        Intra module refs:   time_init
           ENTRY                   ADDRESS         REF BY
           =====                   =======         ======
           TBCCR0                  0192 
    -------------------------------------------------------------------------
<CODE> 1 (was CODE)
  Relative segment, address: B752 - B777 (0x26 bytes), align: 1
  Segment part 16.
           ENTRY                   ADDRESS         REF BY
           =====                   =======         ======
           time_init               B752            halBoardInit (board)
    -------------------------------------------------------------------------
<CODE> 1 (was CODE)
  Relative segment, address: BAA4 - BAA5 (0x2 bytes), align: 1
  Segment part 12.            Intra module refs:   watchdog_timer::??INTVEC 52
           ENTRY                   ADDRESS         REF BY
           =====                   =======         ======
           watchdog_timer          BAA4 
               interrupt function
    -------------------------------------------------------------------------
INTVEC
  Common segment, address: FFC0 - FFF5 (0x36 bytes), align: 1
  Segment part 9. ROOT 
           ENTRY                   ADDRESS         REF BY
           =====                   =======         ======
           watchdog_timer::??INTVEC 52
                                   FFF4 

    *************************************************************************

  FILE NAME : F:\Graduate\Git_program\MSP430F247-v6.2.0\Net\Debug\Obj\uart.r43
  PROGRAM MODULE, NAME : uart

  SEGMENTS IN THE MODULE
  ======================
DATA16_AN
  Relative segment, address: 0003 - 0003 (0x1 bytes), align: 0
  Segment part 1. ROOT 
           ENTRY                   ADDRESS         REF BY
           =====                   =======         ======
           IFG2                    0003 
    -------------------------------------------------------------------------
DATA16_AN
  Relative segment, address: 0061 - 0061 (0x1 bytes), align: 0
  Segment part 3. ROOT 
           ENTRY                   ADDRESS         REF BY
           =====                   =======         ======
           UCA0CTL1                0061 
    -------------------------------------------------------------------------
DATA16_AN
  Relative segment, address: 0062 - 0062 (0x1 bytes), align: 0
  Segment part 4. ROOT 
           ENTRY                   ADDRESS         REF BY
           =====                   =======         ======
           UCA0BR0                 0062 
    -------------------------------------------------------------------------
DATA16_AN
  Relative segment, address: 0063 - 0063 (0x1 bytes), align: 0
  Segment part 5. ROOT 
           ENTRY                   ADDRESS         REF BY
           =====                   =======         ======
           UCA0BR1                 0063 
    -------------------------------------------------------------------------
DATA16_AN
  Relative segment, address: 0064 - 0064 (0x1 bytes), align: 0
  Segment part 6. ROOT 
           ENTRY                   ADDRESS         REF BY
           =====                   =======         ======
           UCA0MCTL                0064 
    -------------------------------------------------------------------------
DATA16_AN
  Relative segment, address: 0067 - 0067 (0x1 bytes), align: 0
  Segment part 7. ROOT 
           ENTRY                   ADDRESS         REF BY
           =====                   =======         ======
           UCA0TXBUF               0067 

    *************************************************************************

  FILE NAME : D:\IAR Systems\MSP430\430\lib\dlib\dl430fn.r43
  LIBRARY MODULE, NAME : ?__dbg_break

  SEGMENTS IN THE MODULE
  ======================
<CODE> 1 (was CODE)
  Relative segment, address: BA9C - BA9D (0x2 bytes), align: 1
  Segment part 2.
           ENTRY                   ADDRESS         REF BY
           =====                   =======         ======
           __DebugBreak            BA9C            __exit (?__exit)

    -------------------------------------------------------------------------
  LIBRARY MODULE, NAME : ?__exit

  SEGMENTS IN THE MODULE
  ======================
<CODE> 1 (was CODE)
  Relative segment, address: B946 - B959 (0x14 bytes), align: 1
  Segment part 2.
           ENTRY                   ADDRESS         REF BY
           =====                   =======         ======
           __exit                  B946            Segment part 6 (?_exit)
                                                   _exit (?_exit)
               calls direct

    -------------------------------------------------------------------------
  LIBRARY MODULE, NAME : ?abs

  SEGMENTS IN THE MODULE
  ======================
<CODE> 1 (was CODE)
  Relative segment, address: BA2C - BA35 (0xa bytes), align: 1
  Segment part 2.
           ENTRY                   ADDRESS         REF BY
           =====                   =======         ======
           abs                     BA2C            AD_cal (adc)
                                                   IdentifyCar (detect)
                                                   TotalJudge (detect)
                                                   calibrateOnce (detect)
                                                   dataCheck (detect)
                                                   getAbsoluteValue (criteria)
                                                   getEuclideanMetric (criteria)
                                                   getExtremum (criteria)
                                                   getMaxDiameter (criteria)
                                                   leaveRecognition (detect)
                                                   parkingStableSet (detect)
                                                   pow (math)
                                                   quickCalibrate (detect)
                                                   saveMiddle (detect)
                                                   vsEnvironment (detect)

    -------------------------------------------------------------------------
  LIBRARY MODULE, NAME : ?_exit

  SEGMENTS IN THE MODULE
  ======================
<CODE> 1 (was CODE)
  Relative segment, address: BA94, align: 1
  Segment part 0.
           ENTRY                   ADDRESS         REF BY
           =====                   =======         ======
           _exit                   BA94            exit (?exit)
    -------------------------------------------------------------------------
<CODE> 1 (was CODE)
  Relative segment, address: BA94 - BA97 (0x4 bytes), align: 1
  Segment part 6.             Intra module refs:   _exit

    -------------------------------------------------------------------------
  LIBRARY MODULE, NAME : ?cstart

  SEGMENTS IN THE MODULE
  ======================
CSTACK
  Relative segment, address: 20B0, align: 1
  Segment part 1.
    -------------------------------------------------------------------------
DATA16_Z
  Relative segment, address: 1204, align: 1
  Segment part 2.
    -------------------------------------------------------------------------
DATA16_I
  Relative segment, address: 1100, align: 1
  Segment part 3.
    -------------------------------------------------------------------------
DATA16_ID
  Relative segment, address: 80E4, align: 1
  Segment part 4.
    -------------------------------------------------------------------------
CSTART
  Relative segment, address: 80EA - 80ED (0x4 bytes), align: 1
  Segment part 9.
           ENTRY                   ADDRESS         REF BY
           =====                   =======         ======
           __program_start         80EA            ?reset_vector (?reset_vector)
                                                   Absolute parts (?ABS_ENTRY_MOD)
           ?cstart_begin           80EA 
    -------------------------------------------------------------------------
CSTART
  Relative segment, address: 80EE - 80F9 (0xc bytes), align: 1
  Segment part 13.
           ENTRY                   ADDRESS         REF BY
           =====                   =======         ======
           ?cstart_init_zero       80EE            A7139_init_err_count (A7139)
                                                   BeaconComing_Count (tdma)
                                                   CSMA_BackOff_Count (mac)
                                                   CSMA_BackOff_Random (mac)
                                                   CarStableCount (detect)
                                                   DataAck_Lost (tdma)
                                                   DataPacket (tdma)
                                                   DataRecvBuffer (mac)
                                                   DataSendBuffer (mac)
                                                   DataSendDraw (interrupt)
                                                   Data_Send_Waiting_Flag (tdma)
                                                   Dis_Threshold (detect)
                                                   EState1_Count (detect)
                                                   EState2_Count (detect)
                                                   EState3_Count (detect)
                                                   EndPointDevice (mac)
                                                   Exit_Sleep (detect)
                                                   Ext_Threshold (detect)
                                                   Frame_Time (interrupt)
                                                   IState1_Count (detect)
                                                   IState2_Count (detect)
                                                   IState3_Count (detect)
                                                   Int_Enable_Count (interrupt)
                                                   Int_Enable_Flag (tdma)
                                                   Int_Threshold (detect)
                                                   JoinRequestPacket (join)
                                                   Keep_Alive_Count (interrupt)
                                                   MagneticUnit (detect)
                                                   On_Test (detect)
                                                   ReCal_Count (detect)
                                                   ReJoinFlag (join)
                                                   Receive_Timeout (interrupt)
                                                   RejoinChannel (join)
                                                   ScanChannel (join)
                                                   Segment part 7 (?rand)
                                                   Segment part 9 (?rand)
                                                   Send_Error_Count (interrupt)
                                                   Send_Error_Flag (interrupt)
                                                   Start_Sleep_Flag (interrupt)
                                                   TQ (ProcessEvent)
                                                   VState1_Count (detect)
                                                   VState2_Count (detect)
                                                   VState3_Count (detect)
                                                   Var_Threshold (detect)
                                                   _Randinit (?rand)
                                                   __iar_Tls_setup__Randinit (?rand)
                                                   __iar_Tls_setup__Randseed (?rand)
                                                   ack_buf (tdma)
                                                   ack_flag (tdma)
                                                   cca_value (mac)
                                                   check_error (detect)
                                                   circle_cfg (PNI)
                                                   compactness_latest (detect)
                                                   compatness_memory (detect)
                                                   compatness_stable_count (detect)
                                                   current_tsk (ProcessEvent)
                                                   diameterbuf (criteria)
                                                   diameterbuf_latest (detect)
                                                   emptytask (ProcessEvent)
                                                   environment_over_count (detect)
                                                   err (PNI)
                                                   force_assign_once (detect)
                                                   last_tsk (ProcessEvent)
                                                   leave_recognition_count (detect)
                                                   look (A7139)
                                                   max_x (criteria)
                                                   max_y (criteria)
                                                   no_car_stable_count (detect)
                                                   parking_stable_flag (detect)
                                                   parking_time (detect)
                                                   perimeterbuf (criteria)
                                                   perimeterbuf_latest (detect)
                                                   q (mac)
                                                   rejoin_flag (tdma)
                                                   resend_count (tdma)
                                                   scandata (join)
                                                   send_time (tdma)
                                                   switch_middle (interrupt)
                                                   time (PNI)
                                                   toggle_distance_test (detect)
                                                   toggle_reason (detect)
                                                   update_middle_times (detect)
                                                   w (mac)
                                                   wait_time (mac)
                                                   watch1 (tdma)
                                                   watch2 (tdma)
                                                   x_middle_quene (detect)
                                                   xcheck (detect)
                                                   xoffset (PNI)
                                                   xvalue_memory (detect)
                                                   y_middle_quene (detect)
                                                   ycheck (detect)
                                                   yoffset (PNI)
                                                   z_middle_quene (detect)
                                                   zcheck (detect)
                                                   zoffset (PNI)
                                                   zvalue_memory (detect)
    -------------------------------------------------------------------------
CSTART
  Relative segment, address: 80FA - 8109 (0x10 bytes), align: 1
  Segment part 14.
           ENTRY                   ADDRESS         REF BY
           =====                   =======         ======
           ?cstart_init_copy       80FA            _Randseed (?rand)
                                                   middle_quene_count (detect)
    -------------------------------------------------------------------------
CSTART
  Relative segment, address: 810A - 8111 (0x8 bytes), align: 1
  Segment part 18.            Intra module refs:   Segment part 9
           ENTRY                   ADDRESS         REF BY
           =====                   =======         ======
           ?cstart_call_main       810A 
           ?cstart_end             8112 

    -------------------------------------------------------------------------
  LIBRARY MODULE, NAME : ?reset_vector

  SEGMENTS IN THE MODULE
  ======================
RESET
  Relative segment, address: FFFE - FFFF (0x2 bytes), align: 1
  Segment part 0.
           ENTRY                   ADDRESS         REF BY
           =====                   =======         ======
           ?reset_vector           FFFE            Segment part 9 (?cstart)

    -------------------------------------------------------------------------
  LIBRARY MODULE, NAME : ?Epilogue

  SEGMENTS IN THE MODULE
  ======================
<CODE> 1 (was CODE)
  Relative segment, address: B96C - B96D (0x2 bytes), align: 1
  Segment part 0.
           ENTRY                   ADDRESS         REF BY
           =====                   =======         ======
           ?Epilogue8              B96C            quickCalibrate (detect)
    -------------------------------------------------------------------------
<CODE> 1 (was CODE)
  Relative segment, address: B96E - B96F (0x2 bytes), align: 1
  Segment part 1.             Intra module refs:   ?Epilogue8
           ENTRY                   ADDRESS         REF BY
           =====                   =======         ======
           ?Epilogue7              B96E            AD_cal (adc)
                                                   getEuclideanMetric (criteria)
    -------------------------------------------------------------------------
<CODE> 1 (was CODE)
  Relative segment, address: B970 - B971 (0x2 bytes), align: 1
  Segment part 2.             Intra module refs:   ?Epilogue7
           ENTRY                   ADDRESS         REF BY
           =====                   =======         ======
           ?Epilogue6              B970            getCompatness (criteria)
                                                   getMaxDiameter (criteria)
    -------------------------------------------------------------------------
<CODE> 1 (was CODE)
  Relative segment, address: B972 - B973 (0x2 bytes), align: 1
  Segment part 3.             Intra module refs:   ?Epilogue6
           ENTRY                   ADDRESS         REF BY
           =====                   =======         ======
           ?Epilogue5              B972            A7139_SetFreq (A7139)
                                                   PNI_read_data (PNI)
                                                   getOffset (PNI)
                                                   getPerimeter (criteria)
                                                   pow (math)
    -------------------------------------------------------------------------
<CODE> 1 (was CODE)
  Relative segment, address: B974 - B975 (0x2 bytes), align: 1
  Segment part 4.             Intra module refs:   ?Epilogue5
           ENTRY                   ADDRESS         REF BY
           =====                   =======         ======
           ?Epilogue4              B974            DataSend (tdma)
                                                   getVariance (math)
                                                   sqrt_16 (math)
    -------------------------------------------------------------------------
<CODE> 1 (was CODE)
  Relative segment, address: B976 - B97D (0x8 bytes), align: 1
  Segment part 5.             Intra module refs:   ?Epilogue4
           ENTRY                   ADDRESS         REF BY
           =====                   =======         ======
           ?Epilogue3              B976            Scan_Channel (join)
                                                   bubble (join)
                                                   dataCheck (detect)
                                                   getAverage (math)

    -------------------------------------------------------------------------
  LIBRARY MODULE, NAME : ?exit

  SEGMENTS IN THE MODULE
  ======================
<CODE> 1 (was CODE)
  Relative segment, address: BA90 - BA93 (0x4 bytes), align: 1
  Segment part 2.
           ENTRY                   ADDRESS         REF BY
           =====                   =======         ======
           exit                    BA90            Segment part 18 (?cstart)
               calls direct

    -------------------------------------------------------------------------
  LIBRARY MODULE, NAME : ?Mul32fHw

  SEGMENTS IN THE MODULE
  ======================
<CODE> 1 (was CODE)
  Relative segment, address: 8ED8 - 900D (0x136 bytes), align: 1
  Segment part 0.
           ENTRY                   ADDRESS         REF BY
           =====                   =======         ======
           ?Mul32fHw               8ED8            A7139_SetFreq (A7139)

    -------------------------------------------------------------------------
  LIBRARY MODULE, NAME : ?Cast32f32i

  SEGMENTS IN THE MODULE
  ======================
<CODE> 1 (was CODE)
  Relative segment, address: A690 - A70D (0x7e bytes), align: 1
  Segment part 1.
           ENTRY                   ADDRESS         REF BY
           =====                   =======         ======
           _Cast32uto32f           A690            A7139_SetFreq (A7139)

    -------------------------------------------------------------------------
  LIBRARY MODULE, NAME : _Cast32fto32u

  SEGMENTS IN THE MODULE
  ======================
<CODE> 1 (was CODE)
  Relative segment, address: BA08 - BA13 (0xc bytes), align: 1
  Segment part 0.
           ENTRY                   ADDRESS         REF BY
           =====                   =======         ======
           _Cast32fto32u           BA08            A7139_SetFreq (A7139)

    -------------------------------------------------------------------------
  LIBRARY MODULE, NAME : ?FLT_Extract

  SEGMENTS IN THE MODULE
  ======================
<CODE> 1 (was CODE)
  Relative segment, address: B0E0 - B12B (0x4c bytes), align: 1
  Segment part 0.
           ENTRY                   ADDRESS         REF BY
           =====                   =======         ======
           ?FLT_Extract            B0E0            _Cast32fto32u (_Cast32fto32u)

    -------------------------------------------------------------------------
  LIBRARY MODULE, NAME : ?FLT_LT

  SEGMENTS IN THE MODULE
  ======================
<CODE> 1 (was CODE)
  Relative segment, address: B03E - B08F (0x52 bytes), align: 1
  Segment part 0.
           ENTRY                   ADDRESS         REF BY
           =====                   =======         ======
           ?FLT_LT                 B03E            _CmpLt32f (_CmpLt32f)

    -------------------------------------------------------------------------
  LIBRARY MODULE, NAME : _CmpLt32f

  SEGMENTS IN THE MODULE
  ======================
<CODE> 1 (was CODE)
  Relative segment, address: BA36 - BA3F (0xa bytes), align: 1
  Segment part 0.
           ENTRY                   ADDRESS         REF BY
           =====                   =======         ======
           _CmpLt32f               BA36            A7139_SetFreq (A7139)

    -------------------------------------------------------------------------
  LIBRARY MODULE, NAME : _Div32f

  SEGMENTS IN THE MODULE
  ======================
<CODE> 1 (was CODE)
  Relative segment, address: 900E - 913D (0x130 bytes), align: 1
  Segment part 0.
           ENTRY                   ADDRESS         REF BY
           =====                   =======         ======
           _Div32f                 900E            A7139_SetFreq (A7139)

    -------------------------------------------------------------------------
  LIBRARY MODULE, NAME : _Add32f

  SEGMENTS IN THE MODULE
  ======================
<CODE> 1 (was CODE)
  Relative segment, address: 8AD8 - 8ADB (0x4 bytes), align: 1
  Segment part 0.
           ENTRY                   ADDRESS         REF BY
           =====                   =======         ======
           _Sub32f                 8AD8            A7139_SetFreq (A7139)
    -------------------------------------------------------------------------
<CODE> 1 (was CODE)
  Relative segment, address: 8ADC - 8C39 (0x15e bytes), align: 1
  Segment part 1.             Intra module refs:   _Sub32f
           ENTRY                   ADDRESS         REF BY
           =====                   =======         ======
           _Add32f                 8ADC 

    -------------------------------------------------------------------------
  LIBRARY MODULE, NAME : ?DivMod816u

  SEGMENTS IN THE MODULE
  ======================
<CODE> 1 (was CODE)
  Relative segment, address: B8CC - B8CF (0x4 bytes), align: 1
  Segment part 0.
           ENTRY                   ADDRESS         REF BY
           =====                   =======         ======
           ?DivMod8u               B8CC            TestSend (interrupt)
    -------------------------------------------------------------------------
<CODE> 1 (was CODE)
  Relative segment, address: B8D0 - B8E7 (0x18 bytes), align: 1
  Segment part 1.             Intra module refs:   ?DivMod8u
           ENTRY                   ADDRESS         REF BY
           =====                   =======         ======
           ?DivMod16u              B8D0            ?DivMod16s (?DivMod816s)
                                                   CSMABackOff (mac)
                                                   Pop_T (ProcessEvent)
                                                   PostTask (ProcessEvent)
                                                   leaveRecognition (detect)

    -------------------------------------------------------------------------
  LIBRARY MODULE, NAME : ?DivMod816s

  SEGMENTS IN THE MODULE
  ======================
<CODE> 1 (was CODE)
  Relative segment, address: B54A - B579 (0x30 bytes), align: 1
  Segment part 1.
           ENTRY                   ADDRESS         REF BY
           =====                   =======         ======
           ?DivMod16s              B54A            BeaconHandler (mac)
                                                   SendByCSMA (mac)

    -------------------------------------------------------------------------
  LIBRARY MODULE, NAME : ?DivMod32u

  SEGMENTS IN THE MODULE
  ======================
<CODE> 1 (was CODE)
  Relative segment, address: B444 - B47B (0x38 bytes), align: 1
  Segment part 0.
           ENTRY                   ADDRESS         REF BY
           =====                   =======         ======
           ?DivMod32u              B444            DataSend (tdma)
                                                   SendByCSMA (mac)
                                                   getAverage (math)
                                                   getCompatness (criteria)
                                                   getVariance (math)
                                                   parkingStableSet (detect)

    -------------------------------------------------------------------------
  LIBRARY MODULE, NAME : ?ShiftLeft16

  SEGMENTS IN THE MODULE
  ======================
<CODE> 1 (was CODE)
  Relative segment, address: BA14 - BA1F (0xc bytes), align: 1
  Segment part 0.
           ENTRY                   ADDRESS         REF BY
           =====                   =======         ======
           ?ShiftLeft16            BA14            halDigioConfig (digio)

    -------------------------------------------------------------------------
  LIBRARY MODULE, NAME : ?ShiftRight16s_n

  SEGMENTS IN THE MODULE
  ======================
<CODE> 1 (was CODE)
  Relative segment, address: B9EE - B9EF (0x2 bytes), align: 1
  Segment part 1.
           ENTRY                   ADDRESS         REF BY
           =====                   =======         ======
           ?ShiftRight16s_6        B9EE            sqrt_16 (math)
    -------------------------------------------------------------------------
<CODE> 1 (was CODE)
  Relative segment, address: B9F0 - B9F1 (0x2 bytes), align: 1
  Segment part 2.             Intra module refs:   ?ShiftRight16s_6
           ENTRY                   ADDRESS         REF BY
           =====                   =======         ======
           ?ShiftRight16s_5        B9F0 
    -------------------------------------------------------------------------
<CODE> 1 (was CODE)
  Relative segment, address: B9F2 - B9F3 (0x2 bytes), align: 1
  Segment part 3.             Intra module refs:   ?ShiftRight16s_5
           ENTRY                   ADDRESS         REF BY
           =====                   =======         ======
           ?ShiftRight16s_4        B9F2 
    -------------------------------------------------------------------------
<CODE> 1 (was CODE)
  Relative segment, address: B9F4 - B9FB (0x8 bytes), align: 1
  Segment part 4.             Intra module refs:   ?ShiftRight16s_4
           ENTRY                   ADDRESS         REF BY
           =====                   =======         ======
           ?ShiftRight16s_3        B9F4 

    -------------------------------------------------------------------------
  LIBRARY MODULE, NAME : ?memcpy

  SEGMENTS IN THE MODULE
  ======================
<CODE> 1 (was CODE)
  Relative segment, address: B97E - B98F (0x12 bytes), align: 1
  Segment part 2.
           ENTRY                   ADDRESS         REF BY
           =====                   =======         ======
           memcpy                  B97E            __data16_memcpy (?memzero)

    -------------------------------------------------------------------------
  LIBRARY MODULE, NAME : ?CopyMemoryBytes

  SEGMENTS IN THE MODULE
  ======================
<CODE> 1 (was CODE)
  Relative segment, address: B9A2 - B9B1 (0x10 bytes), align: 1
  Segment part 0.
           ENTRY                   ADDRESS         REF BY
           =====                   =======         ======
           ?CopyMemoryBytes        B9A2            Pop_T (ProcessEvent)

    -------------------------------------------------------------------------
  LIBRARY MODULE, NAME : ?memzero

  SEGMENTS IN THE MODULE
  ======================
<CODE> 1 (was CODE)
  Relative segment, address: B990 - B9A1 (0x12 bytes), align: 1
  Segment part 4.
           ENTRY                   ADDRESS         REF BY
           =====                   =======         ======
           __data16_memzero        B990            ?cstart_init_zero (?cstart)
    -------------------------------------------------------------------------
<CODE> 1 (was CODE)
  Relative segment, address: BA8C - BA8F (0x4 bytes), align: 1
  Segment part 3.
           ENTRY                   ADDRESS         REF BY
           =====                   =======         ======
           __data16_memcpy         BA8C            ?cstart_init_copy (?cstart)
               calls direct

    -------------------------------------------------------------------------
  LIBRARY MODULE, NAME : ?Mul32Hw

  SEGMENTS IN THE MODULE
  ======================
<CODE> 1 (was CODE)
  Relative segment, address: B5D8 - B605 (0x2e bytes), align: 1
  Segment part 0.
           ENTRY                   ADDRESS         REF BY
           =====                   =======         ======
           ?Mul32Hw                B5D8            Segment part 13 (?rand)
                                                   pow (math)

    -------------------------------------------------------------------------
  LIBRARY MODULE, NAME : ?rand

  SEGMENTS IN THE MODULE
  ======================
DATA16_Z
  Relative segment, address: 1438 - 1438 (0x1 bytes), align: 0
  Segment part 2.             Intra module refs:   rand
           ENTRY                   ADDRESS         REF BY
           =====                   =======         ======
           _Randinit               1438 
    -------------------------------------------------------------------------
DATA16_Z
  Relative segment, address: 1204 - 1205 (0x2 bytes), align: 1
  Segment part 3.             Intra module refs:   rand
           ENTRY                   ADDRESS         REF BY
           =====                   =======         ======
           __iar_Tls_setup__Randinit
                                   1204 
    -------------------------------------------------------------------------
DATA16_I
  Relative segment, address: 1100 - 1103 (0x4 bytes), align: 1
  Segment part 4.             Intra module refs:   Segment part 12
                                                   rand
           ENTRY                   ADDRESS         REF BY
           =====                   =======         ======
           _Randseed               1100 
    -------------------------------------------------------------------------
DATA16_Z
  Relative segment, address: 1206 - 1207 (0x2 bytes), align: 1
  Segment part 6.             Intra module refs:   rand
           ENTRY                   ADDRESS         REF BY
           =====                   =======         ======
           __iar_Tls_setup__Randseed
                                   1206 
    -------------------------------------------------------------------------
DATA16_Z
  Relative segment, address: 1208 - 120B (0x4 bytes), align: 1
  Segment part 7.             Intra module refs:   rand
    -------------------------------------------------------------------------
DATA16_Z
  Relative segment, address: 120C - 128B (0x80 bytes), align: 1
  Segment part 9.             Intra module refs:   rand
    -------------------------------------------------------------------------
<CODE> 1 (was CODE)
  Relative segment, address: A1A2 - A235 (0x94 bytes), align: 1
  Segment part 11.
           ENTRY                   ADDRESS         REF BY
           =====                   =======         ======
           rand                    A1A2            CSMABackOff (mac)
               calls direct and indirect
    -------------------------------------------------------------------------
<CODE> 1 (was CODE)
  Relative segment, address: B930 - B945 (0x16 bytes), align: 1
  Segment part 12.            Intra module refs:   rand
    -------------------------------------------------------------------------
<CODE> 1 (was CODE)
  Relative segment, address: B91A - B92F (0x16 bytes), align: 1
  Segment part 13.            Intra module refs:   Segment part 12
                                                   rand
    -------------------------------------------------------------------------
DATA16_ID
  Relative segment, address: 80E4 - 80E7 (0x4 bytes), align: 1
  Segment part 5.             Intra module refs:   _Randseed




                ****************************************
                *                                      *
                *      SEGMENTS IN ADDRESS ORDER       *
                *                                      *
                ****************************************


SEGMENT              SPACE    START ADDRESS   END ADDRESS     SIZE  TYPE  ALIGN
=======              =====    =============   ===========     ====  ====  =====
DATA16_AN                              0003 - 0003               1   rel    0
                                       0018 - 002E              17 
                                       0030 - 0037               8 
                                       0056 - 0057               2 
                                       0061 - 0064               4 
                                       0067 - 0067               1 
                                       0080 - 0080               1 
                                       0120 - 0121               2 
                                       0128 - 012D               6 
                                       0140 - 0141               2 
                                       0160 - 0163               4 
                                       0170 - 0173               4 
                                       0180 - 0183               4 
                                       0192 - 0193               2 
                                       01A0 - 01A3               4 
                                       10F8 - 10F9               2 
DATA16_I                               1100 - 1104               5   rel    1
DATA16_Z                               1106 - 1438             333   rel    1
CSTACK                                 20B0 - 20FF              50   rel    1
DATA16_C                               8000 - 80E2              E3   rel    1
DATA16_ID                              80E4 - 80E8               5   rel    1
CSTART                                 80EA - 8111              28   rel    1
<CODE> 1                               8112 - BAA9            3998   rel    1
INTVEC                                 FFC0 - FFFB              3C   com    1
RESET                                  FFFE - FFFF               2   rel    1

                ****************************************
                *                                      *
                *        END OF CROSS REFERENCE        *
                *                                      *
                ****************************************

 14 846 bytes of CODE  memory
    904 bytes of DATA  memory (+ 70 absolute )
    232 bytes of CONST memory

Errors: none
Warnings: none

